Certificate:
    Data:
        Version: 3 (0x2)
        Serial Number: 2 (0x2)
        Signature Algorithm: sha256WithRSAEncryption
        Issuer: C=BA, ST=RS, O=Elektrotehnicki fakultet, OU=CA_Vanja, CN=CA1
        Validity
            Not Before: Apr  7 12:09:43 2022 GMT
            Not After : Apr  7 12:09:43 2023 GMT
        Subject: C=BA, ST=RS, O=Elektrotehnicki fakultet, OU=CA_Vanja, CN=admin@gmail.com
        Subject Public Key Info:
            Public Key Algorithm: rsaEncryption
                RSA Public-Key: (4096 bit)
                Modulus:
                    00:ba:7a:18:c3:79:69:f8:5e:08:07:e7:77:24:49:
                    14:bd:3d:99:7a:55:e7:97:ef:58:a7:2f:5e:79:9d:
                    91:7e:59:a9:ca:d6:84:c3:85:8b:68:d2:6b:87:e3:
                    a1:03:61:0a:7a:97:3d:7c:60:05:57:59:aa:5f:3d:
                    77:85:41:68:ae:7f:45:62:68:59:e3:be:31:c8:91:
                    42:32:f0:65:a0:6e:39:14:00:31:a8:14:6e:ac:0b:
                    b4:8b:12:12:9c:38:c9:a4:df:74:e7:96:7b:cf:bd:
                    53:03:09:4f:04:64:b7:06:eb:0d:c0:7e:3a:5c:ce:
                    d6:36:d5:f7:de:8f:00:c8:55:07:a2:aa:97:65:6b:
                    e5:27:75:5c:b5:df:8e:cd:e8:8f:6c:e2:b1:a0:d9:
                    00:c5:7f:cb:1a:1d:0e:45:7b:34:7e:d1:44:7a:50:
                    d1:ad:cd:bf:38:9b:08:4a:fa:66:a2:69:08:c0:6c:
                    f0:5b:a4:ce:f1:3e:29:28:62:52:ae:c4:e4:cf:5c:
                    09:de:f8:12:2b:5b:9d:b9:81:05:fd:b0:96:81:3f:
                    33:75:5b:ab:2b:4a:e2:6f:9a:02:61:89:2b:4a:c4:
                    83:86:e8:fb:2a:21:e2:23:4d:58:8c:1d:b3:02:bf:
                    e3:aa:90:61:de:53:15:98:c8:8e:67:bf:42:9a:7f:
                    fe:af:96:07:e3:ff:bf:e4:9a:35:86:d6:4d:20:fc:
                    9b:d7:ad:0a:0f:07:e6:91:e9:1b:df:3b:a7:ba:4a:
                    f2:3b:ae:b9:67:21:90:7c:90:04:ea:c3:2c:8f:b9:
                    63:49:dd:42:25:de:22:d8:b2:fe:68:a2:86:08:34:
                    53:27:04:43:45:8d:f3:5c:36:c3:61:2d:fe:4b:e8:
                    b6:2f:dc:76:12:69:11:3b:e6:4d:0e:11:e7:87:f0:
                    f6:10:7c:96:4e:b7:42:27:82:0b:21:b8:ad:a2:b9:
                    26:ce:67:df:80:32:d3:3e:cd:47:f5:61:bc:2a:0c:
                    96:77:2e:d3:fa:1c:22:52:f6:90:e9:35:b8:df:11:
                    3e:34:f3:8f:d4:45:cc:c5:ec:73:92:02:31:03:77:
                    42:7a:65:3a:10:f3:72:13:58:d5:24:73:08:b5:e9:
                    a9:b4:d7:8c:52:0d:4c:c0:fb:2d:a3:2f:e2:fe:aa:
                    18:6e:7e:9f:bb:db:44:d6:5e:dc:98:5b:7e:dc:8b:
                    37:33:8b:9b:c2:df:78:13:31:6a:f7:db:4d:47:4e:
                    7e:30:09:36:cc:f5:9f:28:95:0f:3a:7c:6b:f2:84:
                    2b:1b:66:6d:d8:5d:ab:a5:46:85:ad:99:d2:11:e5:
                    7e:50:cf:00:99:c8:5d:33:29:7d:b7:c9:6b:81:1b:
                    98:83:c5
                Exponent: 65537 (0x10001)
        X509v3 extensions:
            X509v3 Basic Constraints: 
                CA:FALSE
            X509v3 Key Usage: 
                Digital Signature, Non Repudiation, Key Encipherment, Data Encipherment
            X509v3 Extended Key Usage: 
                TLS Web Client Authentication
            Netscape Comment: 
                OpenSSL Generated Certificate
            X509v3 Subject Key Identifier: 
                8C:08:7A:22:52:8A:5D:1F:79:B9:67:61:8B:B2:13:41:A2:46:0D:5A
            X509v3 Authority Key Identifier: 
                keyid:9C:3A:58:54:BB:04:4F:C2:8E:D9:52:ED:CC:5F:47:A4:77:FF:1B:21

            X509v3 CRL Distribution Points: 

                Full Name:
                  URI:http://192.168.21.89/rootcrl.pem

    Signature Algorithm: sha256WithRSAEncryption
         7b:f5:3a:a9:90:6d:60:70:8c:d3:6d:20:b3:92:b3:d1:44:9f:
         5c:73:c3:b7:e3:b6:60:04:31:ec:0f:da:5b:4a:b0:6f:85:c2:
         04:2f:43:c2:1b:29:f6:9b:b9:ed:e6:75:5a:b7:36:71:e0:f6:
         fa:5d:db:e1:5f:a6:de:04:75:0f:b9:f8:f5:c1:91:0b:65:2c:
         0e:4f:eb:5e:36:7b:59:b7:24:63:0a:ea:05:e6:b2:d8:72:e0:
         81:71:e6:00:cd:72:76:4a:6e:d4:25:c6:86:c3:99:10:d8:3a:
         fc:93:37:e0:cb:a0:40:74:76:1c:c1:37:83:25:78:ba:78:35:
         f0:8b:d1:4b:aa:87:92:f6:cf:32:eb:8e:9b:d3:a2:d9:1a:af:
         f8:ed:46:48:f8:24:ac:f1:5f:6a:e3:91:38:ca:d9:36:d7:e9:
         15:52:9c:94:fe:8b:9b:55:60:71:fb:f2:2e:08:87:b1:f5:e0:
         88:af:2b:43:b0:35:7c:3e:4d:6b:40:28:50:3b:63:68:b0:88:
         94:ef:1f:3b:c5:bd:14:7b:06:9f:77:1b:ae:35:77:ce:e0:d6:
         d3:b6:a7:69:5d:13:d6:e2:22:ed:03:ab:1a:56:27:d4:d0:02:
         68:d7:e6:2b:1f:5a:c3:c0:b8:e3:0a:89:9e:a2:f6:5a:2d:9e:
         4a:75:9d:55:fc:d8:34:49:e3:66:f1:ba:60:74:56:c7:4c:88:
         d4:e3:8e:87:60:05:11:08:79:d9:1e:09:8d:37:55:4e:10:08:
         19:93:b0:84:e9:fe:73:5e:9e:24:6c:2e:73:69:03:59:90:09:
         50:ef:57:e5:f0:78:72:85:78:35:72:46:9f:8e:16:e8:7b:0a:
         53:f2:c4:5c:02:3d:c2:5e:94:a6:32:ac:c1:9d:40:5a:94:c1:
         27:f5:5e:e4:a9:3c:ef:fa:dc:19:ce:7b:a7:42:1a:b2:4e:d6:
         ed:d4:87:88:e9:99:f2:e7:e7:ec:1b:ab:e8:c4:c0:68:01:1e:
         da:db:73:a2:52:98:b2:6f:76:51:1d:3d:e4:1a:c0:5c:a4:c3:
         5f:93:6d:f6:b1:19:24:0d:f3:f9:65:98:1a:8e:6d:c0:41:82:
         ee:23:8e:46:66:a2:94:ce:6a:8e:cf:38:d7:94:8d:7c:33:3a:
         80:d4:18:b0:84:d5:9c:3b:2c:c4:b1:2f:02:5b:d8:52:da:66:
         d6:72:bf:d5:fa:59:9a:02:be:89:ad:19:85:bb:f3:45:1d:bf:
         bd:65:39:f7:0f:64:37:c7:f4:5e:bb:3c:10:71:f9:5e:38:ce:
         22:93:e4:99:d5:1a:e3:ca:6f:94:93:d3:2e:27:89:a0:25:89:
         60:f9:93:aa:41:21:54:65
-----BEGIN CERTIFICATE-----
MIIGFTCCA/2gAwIBAgIBAjANBgkqhkiG9w0BAQsFADBeMQswCQYDVQQGEwJCQTEL
MAkGA1UECBMCUlMxITAfBgNVBAoTGEVsZWt0cm90ZWhuaWNraSBmYWt1bHRldDER
MA8GA1UECxQIQ0FfVmFuamExDDAKBgNVBAMTA0NBMTAeFw0yMjA0MDcxMjA5NDNa
Fw0yMzA0MDcxMjA5NDNaMGoxCzAJBgNVBAYTAkJBMQswCQYDVQQIEwJSUzEhMB8G
A1UEChMYRWxla3Ryb3RlaG5pY2tpIGZha3VsdGV0MREwDwYDVQQLFAhDQV9WYW5q
YTEYMBYGA1UEAxQPYWRtaW5AZ21haWwuY29tMIICIjANBgkqhkiG9w0BAQEFAAOC
Ag8AMIICCgKCAgEAunoYw3lp+F4IB+d3JEkUvT2ZelXnl+9Ypy9eeZ2RflmpytaE
w4WLaNJrh+OhA2EKepc9fGAFV1mqXz13hUForn9FYmhZ474xyJFCMvBloG45FAAx
qBRurAu0ixISnDjJpN9055Z7z71TAwlPBGS3BusNwH46XM7WNtX33o8AyFUHoqqX
ZWvlJ3Vctd+OzeiPbOKxoNkAxX/LGh0ORXs0ftFEelDRrc2/OJsISvpmomkIwGzw
W6TO8T4pKGJSrsTkz1wJ3vgSK1uduYEF/bCWgT8zdVurK0rib5oCYYkrSsSDhuj7
KiHiI01YjB2zAr/jqpBh3lMVmMiOZ79Cmn/+r5YH4/+/5Jo1htZNIPyb160KDwfm
kekb3zunukryO665ZyGQfJAE6sMsj7ljSd1CJd4i2LL+aKKGCDRTJwRDRY3zXDbD
YS3+S+i2L9x2EmkRO+ZNDhHnh/D2EHyWTrdCJ4ILIbitorkmzmffgDLTPs1H9WG8
KgyWdy7T+hwiUvaQ6TW43xE+NPOP1EXMxexzkgIxA3dCemU6EPNyE1jVJHMItemp
tNeMUg1MwPstoy/i/qoYbn6fu9tE1l7cmFt+3Is3M4ubwt94EzFq99tNR05+MAk2
zPWfKJUPOnxr8oQrG2Zt2F2rpUaFrZnSEeV+UM8AmchdMyl9t8lrgRuYg8UCAwEA
AaOB0TCBzjAJBgNVHRMEAjAAMAsGA1UdDwQEAwIE8DATBgNVHSUEDDAKBggrBgEF
BQcDAjAsBglghkgBhvhCAQ0EHxYdT3BlblNTTCBHZW5lcmF0ZWQgQ2VydGlmaWNh
dGUwHQYDVR0OBBYEFIwIeiJSil0feblnYYuyE0GiRg1aMB8GA1UdIwQYMBaAFJw6
WFS7BE/CjtlS7cxfR6R3/xshMDEGA1UdHwQqMCgwJqAkoCKGIGh0dHA6Ly8xOTIu
MTY4LjIxLjg5L3Jvb3RjcmwucGVtMA0GCSqGSIb3DQEBCwUAA4ICAQB79TqpkG1g
cIzTbSCzkrPRRJ9cc8O347ZgBDHsD9pbSrBvhcIEL0PCGyn2m7nt5nVatzZx4Pb6
XdvhX6beBHUPufj1wZELZSwOT+teNntZtyRjCuoF5rLYcuCBceYAzXJ2Sm7UJcaG
w5kQ2Dr8kzfgy6BAdHYcwTeDJXi6eDXwi9FLqoeS9s8y646b06LZGq/47UZI+CSs
8V9q45E4ytk21+kVUpyU/oubVWBx+/IuCIex9eCIrytDsDV8Pk1rQChQO2NosIiU
7x87xb0UewafdxuuNXfO4NbTtqdpXRPW4iLtA6saVifU0AJo1+YrH1rDwLjjCome
ovZaLZ5KdZ1V/Ng0SeNm8bpgdFbHTIjU446HYAURCHnZHgmNN1VOEAgZk7CE6f5z
Xp4kbC5zaQNZkAlQ71fl8HhyhXg1ckafjhboewpT8sRcAj3CXpSmMqzBnUBalMEn
9V7kqTzv+twZznunQhqyTtbt1IeI6Zny5+fsG6voxMBoAR7a23OiUpiyb3ZRHT3k
GsBcpMNfk232sRkkDfP5ZZgajm3AQYLuI45GZqKUzmqOzzjXlI18MzqA1BiwhNWc
OyzEsS8CW9hS2mbWcr/V+lmaAr6JrRmFu/NFHb+9ZTn3D2Q3x/ReuzwQcfleOM4i
k+SZ1Rrjym+Uk9MuJ4mgJYlg+ZOqQSFUZQ==
-----END CERTIFICATE-----
