Certificate:
    Data:
        Version: 3 (0x2)
        Serial Number: 6 (0x6)
        Signature Algorithm: sha256WithRSAEncryption
        Issuer: C=BA, ST=RS, O=Elektrotehnicki fakultet, OU=CA_Vanja, CN=CA1
        Validity
            Not Before: Apr  7 16:52:14 2022 GMT
            Not After : Apr  7 16:52:14 2023 GMT
        Subject: C=BA, ST=RS, O=Elektrotehnicki fakultet, OU=CA_Vanja, CN=ana@gmail.com
        Subject Public Key Info:
            Public Key Algorithm: rsaEncryption
                RSA Public-Key: (4096 bit)
                Modulus:
                    00:cc:c6:f1:91:58:65:9f:7f:24:c3:f4:db:14:42:
                    bd:6a:9f:e7:06:73:67:c7:5b:6e:ef:3e:6d:ff:5e:
                    d7:8c:e0:f4:7c:68:b7:6d:50:42:7f:30:11:b1:54:
                    7a:ef:a3:bb:a5:7d:6c:0b:07:b3:ae:2a:ac:50:79:
                    ed:c6:18:a9:05:ef:8d:80:f2:ed:cb:c1:2b:11:7c:
                    d1:55:55:4c:bc:f3:0a:ed:82:9c:f1:b4:80:c0:44:
                    78:00:0f:ed:11:82:09:53:21:92:d4:cd:2e:b3:bb:
                    c9:4c:06:0b:23:33:f7:6a:24:12:4c:9c:e5:62:da:
                    18:92:98:dc:93:65:b4:6b:af:cb:d9:60:88:18:cb:
                    ce:ec:fc:13:c5:9c:f5:fe:2c:74:a3:17:b0:7d:dc:
                    d5:d6:ca:a7:3a:bb:02:8c:a3:b3:33:68:0e:3f:95:
                    72:f8:30:5b:27:5f:8d:57:c4:23:6e:a5:c8:14:0e:
                    38:5b:aa:c1:08:f1:c5:b5:6a:05:6d:ee:97:81:b2:
                    c5:50:a8:83:c1:56:96:0f:e7:71:7d:cd:ea:60:73:
                    97:3f:ac:c5:34:f0:70:f9:32:68:00:74:da:04:52:
                    bf:68:af:37:14:ac:b6:93:af:2f:a9:9f:1f:aa:30:
                    d9:32:ad:97:69:82:61:28:ac:20:e3:99:4a:75:b9:
                    05:e8:0c:09:c8:2e:63:a2:59:25:4e:b6:24:46:cf:
                    44:6b:8f:c5:35:8f:1e:7a:6e:ec:8e:95:62:6e:c7:
                    b0:0c:90:ad:d5:77:a6:68:8e:0f:26:4a:ec:37:95:
                    03:3e:d4:6a:08:3c:82:b8:e2:a6:56:f2:3e:29:3b:
                    4f:ba:fb:2b:67:d4:61:0a:05:9a:5e:a7:2b:b4:96:
                    ef:96:15:15:3a:ba:69:83:47:42:f0:d9:63:b3:fe:
                    c0:4d:ea:38:ff:46:a6:d9:d9:67:04:bf:3e:c9:23:
                    89:29:42:bc:10:ae:50:ee:a0:46:ce:bf:06:61:bd:
                    6d:2b:81:5b:21:3e:84:ca:59:02:fc:09:ce:18:2e:
                    02:cd:11:ce:05:d7:74:b5:cd:16:32:a8:78:09:c4:
                    e3:ee:e8:02:d8:c8:4d:24:24:2b:fe:0b:2f:49:97:
                    cd:96:fb:f7:ba:c0:f3:3a:38:92:2e:c2:26:03:cc:
                    94:ce:96:a9:d3:4a:9d:b3:14:a3:9e:0e:6b:49:8f:
                    21:47:00:04:84:4d:21:43:3e:6b:f1:d3:00:6f:34:
                    44:e7:01:12:f5:7a:98:df:cf:5b:82:15:60:cf:79:
                    72:22:da:33:94:4e:0f:16:b8:7c:78:dd:0f:59:3f:
                    b3:29:5f:f0:d7:2f:98:5c:42:8b:23:c2:06:08:3d:
                    22:a3:1b
                Exponent: 65537 (0x10001)
        X509v3 extensions:
            X509v3 Basic Constraints: 
                CA:FALSE
            X509v3 Key Usage: 
                Digital Signature, Non Repudiation, Key Encipherment, Data Encipherment
            X509v3 Extended Key Usage: 
                TLS Web Client Authentication
            Netscape Comment: 
                OpenSSL Generated Certificate
            X509v3 Subject Key Identifier: 
                63:AA:F6:F9:61:3D:BA:4E:2F:F5:1D:1D:35:D8:FB:81:30:18:BA:06
            X509v3 Authority Key Identifier: 
                keyid:9C:3A:58:54:BB:04:4F:C2:8E:D9:52:ED:CC:5F:47:A4:77:FF:1B:21

            X509v3 CRL Distribution Points: 

                Full Name:
                  URI:http://192.168.21.89/rootcrl.pem

    Signature Algorithm: sha256WithRSAEncryption
         57:32:0a:5c:f4:6d:f2:18:fa:1c:1e:f0:c2:5e:6b:50:e1:7b:
         02:88:d5:c8:b3:89:c5:5c:47:f4:8c:a4:69:e8:f1:6c:84:b6:
         51:67:8c:f2:f7:84:cd:bf:00:05:dc:cc:91:a9:d5:64:41:a1:
         42:e1:95:09:ac:da:f5:c4:e9:58:df:fc:09:02:72:72:35:d2:
         3f:d4:9e:42:00:b9:1b:1f:7f:8d:58:c2:79:51:46:c6:a7:00:
         af:66:8d:53:0f:74:88:95:80:80:0c:ca:f7:af:63:be:8b:80:
         4d:03:5d:20:94:34:ff:1c:53:1d:3e:a4:49:f6:52:e7:ad:38:
         bb:40:70:d2:85:99:52:00:9e:a5:de:97:03:92:ae:d0:e7:80:
         b4:5e:e1:e4:36:f8:90:db:62:c9:3a:81:79:76:9f:ae:bb:dd:
         43:e3:a9:8d:c6:33:bd:ae:01:67:4e:c5:1c:35:fa:d4:1e:9a:
         57:a3:97:96:e3:cd:63:2d:19:f4:1d:c3:3b:ec:00:ee:d3:47:
         0e:4a:d3:f7:95:88:78:82:79:ed:a6:6c:36:1d:ee:3e:10:3a:
         f8:ed:51:67:4a:85:4f:5b:8b:ed:03:e2:ec:8d:84:84:01:42:
         f1:7b:ee:f2:0c:68:ff:54:de:d7:62:ef:2a:10:bb:6e:22:85:
         96:a7:40:7a:dd:ba:50:86:dd:bb:a5:4a:eb:6a:11:a3:02:e4:
         29:c1:cb:10:e0:46:0e:bb:af:21:61:89:25:da:6f:7d:8e:8a:
         30:bb:60:2e:e5:a8:93:b1:cc:8e:f5:e7:b3:00:46:fd:62:c7:
         ee:25:df:04:8f:35:db:be:b2:44:fe:83:41:fc:77:db:34:99:
         92:89:c2:c2:c0:b2:40:d2:21:23:c0:87:3a:79:be:c5:9b:26:
         d7:48:e7:c4:49:c1:37:68:52:80:46:bc:28:cf:c1:bb:48:65:
         f2:62:ee:c2:b7:d6:a0:af:01:67:20:fe:10:41:2d:cd:a6:f9:
         a1:1e:a3:b5:9a:63:6d:4b:ab:bb:20:cd:c2:f3:71:5b:e9:bb:
         9b:af:96:0c:ee:13:2a:b5:d2:40:77:9e:8d:f9:33:bf:28:df:
         9d:2f:20:7b:6e:8e:6a:37:c8:e7:bd:dd:c3:5b:db:de:50:0c:
         d4:cf:5f:5f:55:0e:44:2c:85:b5:6c:4f:85:22:de:1f:d4:fb:
         7d:9b:d2:09:c5:4f:83:72:fd:6d:89:86:47:93:24:79:49:f9:
         6b:af:19:57:7f:27:94:0f:3d:2a:6c:12:7a:9b:0b:cb:96:7c:
         55:19:a5:64:d7:ae:77:67:df:fe:14:67:ad:df:15:73:b4:1c:
         e1:1a:ab:a3:3b:19:44:34
-----BEGIN CERTIFICATE-----
MIIGEzCCA/ugAwIBAgIBBjANBgkqhkiG9w0BAQsFADBeMQswCQYDVQQGEwJCQTEL
MAkGA1UECBMCUlMxITAfBgNVBAoTGEVsZWt0cm90ZWhuaWNraSBmYWt1bHRldDER
MA8GA1UECxQIQ0FfVmFuamExDDAKBgNVBAMTA0NBMTAeFw0yMjA0MDcxNjUyMTRa
Fw0yMzA0MDcxNjUyMTRaMGgxCzAJBgNVBAYTAkJBMQswCQYDVQQIEwJSUzEhMB8G
A1UEChMYRWxla3Ryb3RlaG5pY2tpIGZha3VsdGV0MREwDwYDVQQLFAhDQV9WYW5q
YTEWMBQGA1UEAxQNYW5hQGdtYWlsLmNvbTCCAiIwDQYJKoZIhvcNAQEBBQADggIP
ADCCAgoCggIBAMzG8ZFYZZ9/JMP02xRCvWqf5wZzZ8dbbu8+bf9e14zg9Hxot21Q
Qn8wEbFUeu+ju6V9bAsHs64qrFB57cYYqQXvjYDy7cvBKxF80VVVTLzzCu2CnPG0
gMBEeAAP7RGCCVMhktTNLrO7yUwGCyMz92okEkyc5WLaGJKY3JNltGuvy9lgiBjL
zuz8E8Wc9f4sdKMXsH3c1dbKpzq7AoyjszNoDj+VcvgwWydfjVfEI26lyBQOOFuq
wQjxxbVqBW3ul4GyxVCog8FWlg/ncX3N6mBzlz+sxTTwcPkyaAB02gRSv2ivNxSs
tpOvL6mfH6ow2TKtl2mCYSisIOOZSnW5BegMCcguY6JZJU62JEbPRGuPxTWPHnpu
7I6VYm7HsAyQrdV3pmiODyZK7DeVAz7Uagg8grjiplbyPik7T7r7K2fUYQoFml6n
K7SW75YVFTq6aYNHQvDZY7P+wE3qOP9GptnZZwS/PskjiSlCvBCuUO6gRs6/BmG9
bSuBWyE+hMpZAvwJzhguAs0RzgXXdLXNFjKoeAnE4+7oAtjITSQkK/4LL0mXzZb7
97rA8zo4ki7CJgPMlM6WqdNKnbMUo54Oa0mPIUcABIRNIUM+a/HTAG80ROcBEvV6
mN/PW4IVYM95ciLaM5RODxa4fHjdD1k/sylf8NcvmFxCiyPCBgg9IqMbAgMBAAGj
gdEwgc4wCQYDVR0TBAIwADALBgNVHQ8EBAMCBPAwEwYDVR0lBAwwCgYIKwYBBQUH
AwIwLAYJYIZIAYb4QgENBB8WHU9wZW5TU0wgR2VuZXJhdGVkIENlcnRpZmljYXRl
MB0GA1UdDgQWBBRjqvb5YT26Ti/1HR012PuBMBi6BjAfBgNVHSMEGDAWgBScOlhU
uwRPwo7ZUu3MX0ekd/8bITAxBgNVHR8EKjAoMCagJKAihiBodHRwOi8vMTkyLjE2
OC4yMS44OS9yb290Y3JsLnBlbTANBgkqhkiG9w0BAQsFAAOCAgEAVzIKXPRt8hj6
HB7wwl5rUOF7AojVyLOJxVxH9IykaejxbIS2UWeM8veEzb8ABdzMkanVZEGhQuGV
Caza9cTpWN/8CQJycjXSP9SeQgC5Gx9/jVjCeVFGxqcAr2aNUw90iJWAgAzK969j
vouATQNdIJQ0/xxTHT6kSfZS5604u0Bw0oWZUgCepd6XA5Ku0OeAtF7h5Db4kNti
yTqBeXafrrvdQ+OpjcYzva4BZ07FHDX61B6aV6OXluPNYy0Z9B3DO+wA7tNHDkrT
95WIeIJ57aZsNh3uPhA6+O1RZ0qFT1uL7QPi7I2EhAFC8Xvu8gxo/1Te12LvKhC7
biKFlqdAet26UIbdu6VK62oRowLkKcHLEOBGDruvIWGJJdpvfY6KMLtgLuWok7HM
jvXnswBG/WLH7iXfBI81276yRP6DQfx32zSZkonCwsCyQNIhI8CHOnm+xZsm10jn
xEnBN2hSgEa8KM/Bu0hl8mLuwrfWoK8BZyD+EEEtzab5oR6jtZpjbUuruyDNwvNx
W+m7m6+WDO4TKrXSQHeejfkzvyjfnS8ge26OajfI573dw1vb3lAM1M9fX1UORCyF
tWxPhSLeH9T7fZvSCcVPg3L9bYmGR5MkeUn5a68ZV38nlA89KmwSepsLy5Z8VRml
ZNeud2ff/hRnrd8Vc7Qc4RqrozsZRDQ=
-----END CERTIFICATE-----
