Certificate:
    Data:
        Version: 3 (0x2)
        Serial Number: 1 (0x1)
        Signature Algorithm: sha256WithRSAEncryption
        Issuer: C=BA, ST=RS, L=Banja Luka, O=Elektrotehnicki fakultet, OU=CA_Vanja, CN=ROOT CA TIJELO
        Validity
            Not Before: Feb  5 17:38:48 2022 GMT
            Not After : Aug  4 17:38:48 2022 GMT
        Subject: C=BA, ST=RS, O=Elektrotehnicki fakultet, OU=CA_Vanja, CN=CA1
        Subject Public Key Info:
            Public Key Algorithm: rsaEncryption
                RSA Public-Key: (4096 bit)
                Modulus:
                    00:ca:8f:42:c8:a6:9a:4c:92:a2:5e:91:4e:24:a8:
                    ff:bd:51:02:58:c5:ec:bb:71:05:dd:31:af:3d:26:
                    4a:4a:b4:8d:a3:c9:45:c5:7c:34:09:ae:ec:be:02:
                    59:19:1e:c1:ab:c3:a5:be:ae:83:af:f4:b1:c5:76:
                    d6:0b:3b:ca:92:fa:2b:67:8e:21:0c:9d:6c:03:f9:
                    0f:53:6f:7b:49:1a:50:da:82:ed:ad:f5:88:d8:b4:
                    2e:30:c4:5c:1c:cb:1b:f4:7d:9a:c1:f4:81:44:29:
                    2d:c1:00:7a:d0:0c:16:82:f6:bb:37:12:c7:40:db:
                    c6:73:88:bc:f5:09:20:59:be:6a:92:e3:e0:9c:d1:
                    3e:54:36:eb:2a:16:3c:af:a6:4a:d9:b0:ab:c4:c5:
                    07:93:3b:a6:c0:e8:9b:58:85:2e:67:e8:d3:eb:7e:
                    29:ef:68:92:b6:18:94:31:30:28:7d:41:04:7f:e3:
                    14:52:b4:a0:90:7a:70:06:7d:1d:65:97:be:a2:f5:
                    a0:ee:a8:e7:76:96:30:c2:c0:2e:07:92:97:92:cb:
                    d5:dd:e5:55:93:a3:0d:98:0a:69:a4:05:89:7d:0c:
                    ae:e0:1d:73:9a:1f:0e:11:49:cb:09:2c:14:dc:80:
                    5d:cd:c2:49:9c:1d:d3:e0:4a:a0:c7:d0:7b:1a:6b:
                    0a:af:ca:18:07:21:8b:e1:0b:1f:9a:cc:53:7b:5c:
                    9c:da:af:0e:56:95:f2:97:06:f7:23:4f:09:19:fc:
                    d1:d5:f8:4c:ee:0a:03:08:95:5c:07:39:0a:7e:9c:
                    ff:33:a9:0f:35:c5:27:16:b3:f9:70:bd:38:9d:ba:
                    16:27:1e:33:b0:a0:9e:7d:2b:06:b1:49:ba:04:d2:
                    39:2f:3e:61:b7:d6:da:8b:fe:a1:59:b1:c3:69:de:
                    8e:a2:23:21:70:70:a6:5b:cf:bc:0e:53:25:80:db:
                    fb:bb:c7:6b:35:1e:c0:ab:7f:5d:3f:1c:8d:e3:18:
                    c5:53:5a:82:9b:67:20:18:8d:5a:50:fa:d3:4a:e5:
                    ac:a7:3b:fa:b5:94:b9:de:2f:ea:7e:ad:8e:16:72:
                    70:b1:c2:fc:37:50:df:f2:30:ee:2e:c6:1c:76:ee:
                    22:b8:dd:d4:69:97:4a:42:b9:25:bd:e5:21:0e:91:
                    3d:f5:92:08:45:ae:15:2e:5c:fc:ed:3c:d8:7e:0f:
                    25:fe:01:de:1d:ac:e5:bf:e8:7a:f2:d4:98:e0:4a:
                    af:65:fc:4d:87:35:97:88:cc:8f:aa:6a:38:f6:7a:
                    48:5b:56:e4:2c:9e:d0:73:39:d7:bf:6e:eb:49:d7:
                    9f:ef:e7:de:3d:56:fc:1c:0e:77:cd:d2:7b:03:a1:
                    18:11:71
                Exponent: 65537 (0x10001)
        X509v3 extensions:
            X509v3 Basic Constraints: 
                CA:TRUE
            X509v3 Key Usage: 
                Digital Signature, Certificate Sign, CRL Sign
            X509v3 Extended Key Usage: 
                TLS Web Client Authentication
            Netscape Comment: 
                OpenSSL Generated Certificate
            X509v3 Subject Key Identifier: 
                9C:3A:58:54:BB:04:4F:C2:8E:D9:52:ED:CC:5F:47:A4:77:FF:1B:21
            X509v3 Authority Key Identifier: 
                keyid:60:40:9F:27:C9:F3:C4:2E:C6:1C:19:71:FD:78:24:31:08:3E:ED:1A

            X509v3 CRL Distribution Points: 

                Full Name:
                  URI:http://192.168.21.89/rootcrl.pem

    Signature Algorithm: sha256WithRSAEncryption
         82:db:48:4d:df:ed:95:a9:b0:45:14:36:41:c8:0c:04:43:54:
         ce:6a:88:da:52:be:fe:27:3b:54:a0:fd:08:7c:ab:2b:5e:9f:
         72:5b:da:91:f3:b4:62:65:df:a2:af:1a:de:37:a9:f9:bf:a9:
         ff:db:76:36:f7:f0:f8:d7:1a:df:18:7f:0b:f9:d4:86:08:58:
         0f:38:50:e1:f3:c4:07:91:f4:f7:36:80:80:0e:af:2f:56:e3:
         06:c2:99:9b:c1:26:5f:66:c4:95:55:42:ec:38:88:b0:dd:9e:
         9d:d5:e3:10:c3:cc:92:b1:ca:d7:65:31:0e:0a:de:c5:c9:c0:
         b7:56:b3:42:04:99:52:4f:a9:36:77:7d:50:58:3e:58:4d:20:
         68:66:0b:ed:72:42:30:6d:15:84:83:93:76:e1:cd:6d:1c:63:
         a0:f3:9d:d8:df:e4:e8:06:37:89:26:03:8d:08:7a:f7:7a:64:
         c7:e5:c6:c4:51:a6:d7:be:66:51:be:b2:93:a2:22:b4:bb:de:
         cd:94:f4:66:89:74:b5:b4:69:4d:26:cc:c4:0c:92:4d:5b:fc:
         e8:05:20:49:a3:c1:d8:b1:26:5c:a2:e4:40:86:a6:f2:66:11:
         38:95:c2:37:97:a0:e3:60:df:94:4d:e3:e8:b8:d1:dd:e0:49:
         4d:57:e7:7a:bb:1d:4c:8b:6e:87:51:43:62:dc:84:58:9e:89:
         74:2e:46:e4:bd:aa:44:e8:e8:f8:0d:d5:6b:e0:f9:52:e6:ba:
         76:27:28:a9:e2:5e:47:d4:9a:29:9a:8f:b2:09:5f:e0:5a:2d:
         00:0f:f0:79:5b:91:80:6e:00:08:21:d1:d6:32:eb:2c:17:f7:
         84:73:58:6f:2e:ec:35:e1:6c:0f:66:b5:2a:33:43:43:dc:83:
         eb:21:cc:e2:0d:51:5e:9e:54:e3:1f:5c:e0:1e:b0:07:26:a4:
         58:1a:47:11:80:74:c0:b3:15:62:a0:8c:f0:4c:de:bc:63:5c:
         b5:5f:5f:24:05:52:d0:6b:b2:6d:3e:8b:82:c4:ef:a9:0a:19:
         e9:45:a7:bd:37:59:79:02:3b:8f:07:64:d6:5c:f3:53:64:fb:
         31:c7:f0:06:68:29:13:d2:87:02:f9:52:09:a9:e8:2a:0b:60:
         ec:fa:28:45:56:aa:69:05:8a:46:ae:1a:f7:db:1d:28:ab:9b:
         5f:1b:7f:83:25:80:f3:0c:c8:c6:6d:31:74:04:05:04:ba:33:
         3d:b8:f9:85:4c:42:2b:63:1c:07:25:d1:23:8b:a5:93:c4:87:
         3f:82:e1:cb:e8:a6:b5:60:7a:b7:bb:ed:a8:9a:76:97:e5:6f:
         46:ec:de:d6:20:6b:43:da
-----BEGIN CERTIFICATE-----
MIIGLDCCBBSgAwIBAgIBATANBgkqhkiG9w0BAQsFADB+MQswCQYDVQQGEwJCQTEL
MAkGA1UECBMCUlMxEzARBgNVBAcTCkJhbmphIEx1a2ExITAfBgNVBAoTGEVsZWt0
cm90ZWhuaWNraSBmYWt1bHRldDERMA8GA1UECxQIQ0FfVmFuamExFzAVBgNVBAMT
DlJPT1QgQ0EgVElKRUxPMB4XDTIyMDIwNTE3Mzg0OFoXDTIyMDgwNDE3Mzg0OFow
XjELMAkGA1UEBhMCQkExCzAJBgNVBAgTAlJTMSEwHwYDVQQKExhFbGVrdHJvdGVo
bmlja2kgZmFrdWx0ZXQxETAPBgNVBAsUCENBX1ZhbmphMQwwCgYDVQQDEwNDQTEw
ggIiMA0GCSqGSIb3DQEBAQUAA4ICDwAwggIKAoICAQDKj0LIpppMkqJekU4kqP+9
UQJYxey7cQXdMa89JkpKtI2jyUXFfDQJruy+AlkZHsGrw6W+roOv9LHFdtYLO8qS
+itnjiEMnWwD+Q9Tb3tJGlDagu2t9YjYtC4wxFwcyxv0fZrB9IFEKS3BAHrQDBaC
9rs3EsdA28ZziLz1CSBZvmqS4+Cc0T5UNusqFjyvpkrZsKvExQeTO6bA6JtYhS5n
6NPrfinvaJK2GJQxMCh9QQR/4xRStKCQenAGfR1ll76i9aDuqOd2ljDCwC4HkpeS
y9Xd5VWTow2YCmmkBYl9DK7gHXOaHw4RScsJLBTcgF3NwkmcHdPgSqDH0Hsaawqv
yhgHIYvhCx+azFN7XJzarw5WlfKXBvcjTwkZ/NHV+EzuCgMIlVwHOQp+nP8zqQ81
xScWs/lwvTiduhYnHjOwoJ59KwaxSboE0jkvPmG31tqL/qFZscNp3o6iIyFwcKZb
z7wOUyWA2/u7x2s1HsCrf10/HI3jGMVTWoKbZyAYjVpQ+tNK5aynO/q1lLneL+p+
rY4WcnCxwvw3UN/yMO4uxhx27iK43dRpl0pCuSW95SEOkT31kghFrhUuXPztPNh+
DyX+Ad4drOW/6Hry1JjgSq9l/E2HNZeIzI+qajj2ekhbVuQsntBzOde/butJ15/v
5949VvwcDnfN0nsDoRgRcQIDAQABo4HUMIHRMAwGA1UdEwQFMAMBAf8wCwYDVR0P
BAQDAgGGMBMGA1UdJQQMMAoGCCsGAQUFBwMCMCwGCWCGSAGG+EIBDQQfFh1PcGVu
U1NMIEdlbmVyYXRlZCBDZXJ0aWZpY2F0ZTAdBgNVHQ4EFgQUnDpYVLsET8KO2VLt
zF9HpHf/GyEwHwYDVR0jBBgwFoAUYECfJ8nzxC7GHBlx/XgkMQg+7RowMQYDVR0f
BCowKDAmoCSgIoYgaHR0cDovLzE5Mi4xNjguMjEuODkvcm9vdGNybC5wZW0wDQYJ
KoZIhvcNAQELBQADggIBAILbSE3f7ZWpsEUUNkHIDARDVM5qiNpSvv4nO1Sg/Qh8
qyten3Jb2pHztGJl36KvGt43qfm/qf/bdjb38PjXGt8Yfwv51IYIWA84UOHzxAeR
9Pc2gIAOry9W4wbCmZvBJl9mxJVVQuw4iLDdnp3V4xDDzJKxytdlMQ4K3sXJwLdW
s0IEmVJPqTZ3fVBYPlhNIGhmC+1yQjBtFYSDk3bhzW0cY6Dzndjf5OgGN4kmA40I
evd6ZMflxsRRpte+ZlG+spOiIrS73s2U9GaJdLW0aU0mzMQMkk1b/OgFIEmjwdix
Jlyi5ECGpvJmETiVwjeXoONg35RN4+i40d3gSU1X53q7HUyLbodRQ2LchFieiXQu
RuS9qkTo6PgN1Wvg+VLmunYnKKniXkfUmimaj7IJX+BaLQAP8HlbkYBuAAgh0dYy
6ywX94RzWG8u7DXhbA9mtSozQ0Pcg+shzOINUV6eVOMfXOAesAcmpFgaRxGAdMCz
FWKgjPBM3rxjXLVfXyQFUtBrsm0+i4LE76kKGelFp703WXkCO48HZNZc81Nk+zHH
8AZoKRPShwL5Ugmp6CoLYOz6KEVWqmkFikauGvfbHSirm18bf4MlgPMMyMZtMXQE
BQS6Mz24+YVMQitjHAcl0SOLpZPEhz+C4cvoprVgere77aiadpflb0bs3tYga0Pa
-----END CERTIFICATE-----
