Certificate:
    Data:
        Version: 3 (0x2)
        Serial Number: 2 (0x2)
        Signature Algorithm: sha256WithRSAEncryption
        Issuer: C=BA, ST=RS, L=Banja Luka, O=Elektrotehnicki fakultet, OU=CA_Vanja, CN=ROOT CA TIJELO
        Validity
            Not Before: Feb  5 17:39:00 2022 GMT
            Not After : Aug  4 17:39:00 2022 GMT
        Subject: C=BA, ST=RS, O=Elektrotehnicki fakultet, OU=CA_Vanja, CN=CA2
        Subject Public Key Info:
            Public Key Algorithm: rsaEncryption
                RSA Public-Key: (4096 bit)
                Modulus:
                    00:e7:57:f9:a4:cf:6f:ba:19:93:8e:0d:c4:54:37:
                    88:1f:2e:47:98:c3:69:d4:41:02:b8:79:ea:84:02:
                    ea:7f:1f:81:d3:05:cc:36:27:4e:ff:3c:73:43:45:
                    50:d5:49:ff:74:5e:d2:ee:62:28:eb:e1:55:83:59:
                    ca:fa:0f:6e:5f:87:f0:5a:09:95:94:e2:4d:d3:14:
                    bc:d8:db:15:8e:35:55:4c:ff:b4:2d:84:39:1b:81:
                    2b:dd:4c:fb:9f:2f:1e:9f:66:df:1e:21:3f:77:3c:
                    9d:0e:69:f8:40:c5:a0:15:44:2b:2f:da:59:7e:12:
                    f8:8f:6b:26:be:90:d1:c3:13:4e:61:cf:d5:09:f7:
                    40:17:f4:65:43:71:c3:2d:2f:26:33:65:37:de:20:
                    51:b8:72:8c:5f:21:0c:d2:af:cf:07:b9:79:e1:ef:
                    b6:22:61:55:7b:82:b0:37:9e:43:62:2b:ca:5f:18:
                    40:cb:8b:ab:52:6f:9f:01:3c:2e:9c:6b:bc:8d:36:
                    6f:3e:67:eb:bf:19:db:3e:68:a5:09:bb:fc:a9:fa:
                    91:97:4f:67:06:fa:f0:93:3b:f6:25:58:69:4b:da:
                    d5:5f:a4:52:d6:7c:54:ff:b3:35:f2:2d:33:d3:20:
                    98:2a:18:35:47:56:b1:79:79:5b:31:7d:25:ce:74:
                    f2:e3:36:7b:f7:b6:63:95:62:e1:d1:27:0f:ac:f2:
                    9e:d5:8b:9a:fe:0b:fa:39:14:3a:ad:3f:1e:3d:4f:
                    87:d1:1d:d7:9f:e7:8f:11:72:37:aa:c3:47:1b:d5:
                    73:35:76:ab:58:07:88:42:e6:de:6b:fd:a8:4b:b0:
                    d8:60:bb:c1:5f:0f:f6:38:be:20:3c:73:77:bc:74:
                    18:cc:af:c5:94:2d:55:cb:b8:3e:af:bc:b6:5a:f6:
                    5a:7e:5d:30:f9:b9:83:1a:c5:25:8f:6a:3f:67:23:
                    23:23:bb:7e:13:a1:04:fd:5b:2a:98:2c:ce:fd:f6:
                    5d:dd:ac:11:32:4c:1f:23:69:7a:cd:04:8d:26:9f:
                    88:58:a8:69:75:b5:de:a1:73:15:6e:03:dd:fb:12:
                    65:be:cc:8e:d8:c6:0a:e3:9c:5e:b8:a3:b7:7f:2c:
                    70:ac:82:c7:fe:10:c6:f1:04:c2:0e:af:21:6b:70:
                    e6:60:ab:48:34:9c:2e:6d:5c:09:f9:03:38:f4:91:
                    86:d7:80:1f:1a:24:da:0b:0e:db:06:53:06:05:86:
                    a4:60:73:c3:98:ad:57:05:5b:56:d8:c1:4f:02:ad:
                    4c:43:09:3d:5c:bd:d8:62:95:0d:0c:c3:22:a6:44:
                    eb:9c:c7:44:52:52:a1:27:56:2e:05:b4:81:92:81:
                    a5:19:91
                Exponent: 65537 (0x10001)
        X509v3 extensions:
            X509v3 Basic Constraints: 
                CA:TRUE
            X509v3 Key Usage: 
                Digital Signature, Certificate Sign, CRL Sign
            X509v3 Extended Key Usage: 
                TLS Web Client Authentication
            Netscape Comment: 
                OpenSSL Generated Certificate
            X509v3 Subject Key Identifier: 
                8C:11:B1:CD:16:03:CD:70:4F:03:79:7C:DC:AF:B5:68:6A:A7:83:65
            X509v3 Authority Key Identifier: 
                keyid:60:40:9F:27:C9:F3:C4:2E:C6:1C:19:71:FD:78:24:31:08:3E:ED:1A

            X509v3 CRL Distribution Points: 

                Full Name:
                  URI:http://192.168.21.89/rootcrl.pem

    Signature Algorithm: sha256WithRSAEncryption
         4b:6b:1d:55:f3:0c:41:7d:8c:fb:d6:85:0f:88:da:fb:6b:f2:
         5b:63:27:83:36:05:29:6a:fc:45:37:b1:93:c1:05:8c:98:1e:
         ba:d2:92:d7:d0:82:3e:f0:5c:5d:3d:b2:1c:c2:28:14:9c:f3:
         57:10:73:33:90:30:01:32:8a:ab:e6:03:2b:27:32:b6:52:05:
         bf:cb:43:8c:5e:ae:90:99:12:a7:d9:99:b3:19:63:bf:e0:5b:
         3d:b7:26:9d:03:30:c7:25:e0:22:1f:d6:2a:74:a0:2f:92:5f:
         f7:b5:4d:af:6e:dc:d9:41:d6:ff:6d:74:ec:f2:72:e7:bd:7c:
         3f:31:4c:dd:f8:6e:e9:12:30:be:ab:e9:df:50:28:44:a3:0a:
         f0:57:b6:ac:5c:41:0c:fc:c1:4f:64:92:16:1a:98:72:60:7e:
         6b:be:8a:44:64:f7:59:51:ee:86:73:8d:bb:c2:70:26:3b:20:
         66:03:d4:14:da:c0:18:90:e0:a0:6b:57:52:ef:ec:f0:6f:95:
         cc:0a:d2:e7:51:70:a6:4f:0e:c1:54:e6:30:ba:1e:d9:5c:88:
         d6:f2:cd:3f:53:b8:f4:95:18:af:06:52:23:16:cb:ac:60:f8:
         4a:9d:31:5b:a4:02:d6:87:39:92:98:2e:6b:e6:f5:4a:8b:aa:
         44:c4:82:97:74:76:b8:06:23:ae:92:aa:50:85:f9:23:38:f7:
         1e:12:5e:c5:ba:5d:f5:02:5d:48:8b:3d:0b:e1:43:a7:99:76:
         c9:a6:8e:e7:63:44:c8:4f:b0:9e:23:a2:ec:ac:b2:3a:c0:de:
         b1:bd:9e:63:56:e9:15:ae:ce:5e:3d:f8:f5:41:fd:73:89:1a:
         67:e3:92:e2:57:7c:3f:b4:62:89:7d:7f:b3:1a:25:f4:f9:cd:
         08:b5:bc:27:1f:3e:a0:fe:b8:e4:d9:71:70:e5:6a:ce:7f:bc:
         05:36:f9:cc:a1:31:ee:fc:62:db:a5:d5:f1:20:5e:10:5a:67:
         0a:22:b4:b1:b7:3d:88:c7:81:a4:7e:d6:60:fd:6d:92:99:aa:
         5c:66:93:9c:2b:c6:c6:01:86:71:0f:91:2f:f1:ae:27:23:07:
         ce:cc:43:6b:05:a1:16:7c:7c:ac:09:a5:ca:d4:5d:a3:33:9e:
         e0:09:f0:f9:16:f2:33:da:97:7d:1b:08:1e:dd:6a:cb:cc:a2:
         5f:5f:52:b2:f2:ef:db:23:bb:07:c0:56:04:c2:fd:c2:9d:9d:
         f1:40:0b:84:52:f7:e0:fb:9b:0e:80:16:6e:58:72:bb:7d:82:
         13:56:72:15:48:58:ba:ee:a4:82:6e:12:90:b8:8e:9c:c8:fe:
         fd:0b:44:33:9b:0a:ea:b7
-----BEGIN CERTIFICATE-----
MIIGLDCCBBSgAwIBAgIBAjANBgkqhkiG9w0BAQsFADB+MQswCQYDVQQGEwJCQTEL
MAkGA1UECBMCUlMxEzARBgNVBAcTCkJhbmphIEx1a2ExITAfBgNVBAoTGEVsZWt0
cm90ZWhuaWNraSBmYWt1bHRldDERMA8GA1UECxQIQ0FfVmFuamExFzAVBgNVBAMT
DlJPT1QgQ0EgVElKRUxPMB4XDTIyMDIwNTE3MzkwMFoXDTIyMDgwNDE3MzkwMFow
XjELMAkGA1UEBhMCQkExCzAJBgNVBAgTAlJTMSEwHwYDVQQKExhFbGVrdHJvdGVo
bmlja2kgZmFrdWx0ZXQxETAPBgNVBAsUCENBX1ZhbmphMQwwCgYDVQQDEwNDQTIw
ggIiMA0GCSqGSIb3DQEBAQUAA4ICDwAwggIKAoICAQDnV/mkz2+6GZOODcRUN4gf
LkeYw2nUQQK4eeqEAup/H4HTBcw2J07/PHNDRVDVSf90XtLuYijr4VWDWcr6D25f
h/BaCZWU4k3TFLzY2xWONVVM/7QthDkbgSvdTPufLx6fZt8eIT93PJ0OafhAxaAV
RCsv2ll+EviPaya+kNHDE05hz9UJ90AX9GVDccMtLyYzZTfeIFG4coxfIQzSr88H
uXnh77YiYVV7grA3nkNiK8pfGEDLi6tSb58BPC6ca7yNNm8+Z+u/Gds+aKUJu/yp
+pGXT2cG+vCTO/YlWGlL2tVfpFLWfFT/szXyLTPTIJgqGDVHVrF5eVsxfSXOdPLj
Nnv3tmOVYuHRJw+s8p7Vi5r+C/o5FDqtPx49T4fRHdef548Rcjeqw0cb1XM1dqtY
B4hC5t5r/ahLsNhgu8FfD/Y4viA8c3e8dBjMr8WULVXLuD6vvLZa9lp+XTD5uYMa
xSWPaj9nIyMju34ToQT9WyqYLM799l3drBEyTB8jaXrNBI0mn4hYqGl1td6hcxVu
A937EmW+zI7YxgrjnF64o7d/LHCsgsf+EMbxBMIOryFrcOZgq0g0nC5tXAn5Azj0
kYbXgB8aJNoLDtsGUwYFhqRgc8OYrVcFW1bYwU8CrUxDCT1cvdhilQ0MwyKmROuc
x0RSUqEnVi4FtIGSgaUZkQIDAQABo4HUMIHRMAwGA1UdEwQFMAMBAf8wCwYDVR0P
BAQDAgGGMBMGA1UdJQQMMAoGCCsGAQUFBwMCMCwGCWCGSAGG+EIBDQQfFh1PcGVu
U1NMIEdlbmVyYXRlZCBDZXJ0aWZpY2F0ZTAdBgNVHQ4EFgQUjBGxzRYDzXBPA3l8
3K+1aGqng2UwHwYDVR0jBBgwFoAUYECfJ8nzxC7GHBlx/XgkMQg+7RowMQYDVR0f
BCowKDAmoCSgIoYgaHR0cDovLzE5Mi4xNjguMjEuODkvcm9vdGNybC5wZW0wDQYJ
KoZIhvcNAQELBQADggIBAEtrHVXzDEF9jPvWhQ+I2vtr8ltjJ4M2BSlq/EU3sZPB
BYyYHrrSktfQgj7wXF09shzCKBSc81cQczOQMAEyiqvmAysnMrZSBb/LQ4xerpCZ
EqfZmbMZY7/gWz23Jp0DMMcl4CIf1ip0oC+SX/e1Ta9u3NlB1v9tdOzycue9fD8x
TN34bukSML6r6d9QKESjCvBXtqxcQQz8wU9kkhYamHJgfmu+ikRk91lR7oZzjbvC
cCY7IGYD1BTawBiQ4KBrV1Lv7PBvlcwK0udRcKZPDsFU5jC6HtlciNbyzT9TuPSV
GK8GUiMWy6xg+EqdMVukAtaHOZKYLmvm9UqLqkTEgpd0drgGI66SqlCF+SM49x4S
XsW6XfUCXUiLPQvhQ6eZdsmmjudjRMhPsJ4jouyssjrA3rG9nmNW6RWuzl49+PVB
/XOJGmfjkuJXfD+0Yol9f7MaJfT5zQi1vCcfPqD+uOTZcXDlas5/vAU2+cyhMe78
Ytul1fEgXhBaZwoitLG3PYjHgaR+1mD9bZKZqlxmk5wrxsYBhnEPkS/xricjB87M
Q2sFoRZ8fKwJpcrUXaMznuAJ8PkW8jPal30bCB7dasvMol9fUrLy79sjuwfAVgTC
/cKdnfFAC4RS9+D7mw6AFm5Ycrt9ghNWchVIWLrupIJuEpC4jpzI/v0LRDObCuq3
-----END CERTIFICATE-----
