Certificate:
    Data:
        Version: 3 (0x2)
        Serial Number: 2 (0x2)
        Signature Algorithm: sha256WithRSAEncryption
        Issuer: C=BA, ST=RS, O=Elektrotehnicki fakultet, OU=CA_Vanja, CN=CA2
        Validity
            Not Before: Apr  7 12:35:39 2022 GMT
            Not After : Apr  7 12:35:39 2023 GMT
        Subject: C=BA, ST=RS, O=Elektrotehnicki fakultet, OU=CA_Vanja, CN=david@email.com
        Subject Public Key Info:
            Public Key Algorithm: rsaEncryption
                RSA Public-Key: (4096 bit)
                Modulus:
                    00:c4:9f:d8:ef:64:29:e5:f3:f4:4f:2c:2d:4e:74:
                    2a:0b:d4:d7:36:13:ec:b8:45:b5:ab:f1:8b:05:8a:
                    79:10:51:d1:1b:9b:95:7e:74:40:d1:51:8d:cb:31:
                    7b:c8:86:57:0f:8e:18:28:6e:9d:a3:a8:d0:24:8c:
                    08:00:58:95:e4:84:8e:f0:56:c0:cc:8b:ec:73:35:
                    e5:9f:23:52:a2:2b:17:e6:e3:fd:fe:36:5d:58:a4:
                    c1:1d:a5:f0:43:e1:89:9d:07:44:04:f5:45:6b:d9:
                    e4:78:fb:f5:23:0c:cd:1b:f5:91:e0:b2:33:c4:5d:
                    d5:e6:7b:18:cc:8c:a9:45:c5:5a:8a:3f:52:17:15:
                    a1:7b:4c:8f:e3:4f:9b:8e:88:ae:b1:87:f8:95:24:
                    c3:84:7f:d3:81:a9:63:fb:70:10:32:2f:c4:43:0b:
                    7e:7e:29:38:11:e2:90:c1:4a:17:3a:2a:80:32:d7:
                    6e:b8:6c:4a:73:ea:6b:7a:0e:9c:37:c9:36:8c:8b:
                    75:ec:d6:46:dd:a2:d8:df:10:52:12:8b:30:f5:ac:
                    ae:d0:30:f3:01:58:22:cc:2c:1a:ab:0d:e2:69:10:
                    04:bb:d0:51:69:3d:f4:33:38:bd:22:a0:45:34:bd:
                    1a:ff:d4:f8:7e:9b:5e:a6:75:53:6a:52:d4:c6:a8:
                    f3:4e:6d:b3:6a:6a:7b:ed:2d:d3:d4:05:53:eb:45:
                    6d:c1:ea:ba:f5:62:b0:09:79:10:a2:bf:6f:0d:a8:
                    bf:5f:57:78:a4:9a:15:8d:ca:31:bd:bf:98:e0:63:
                    73:b0:b5:8e:bd:4b:e6:c5:a4:bc:47:a1:8b:0e:33:
                    2f:f4:dc:20:c7:06:eb:0c:76:23:68:fe:36:7b:53:
                    85:4d:76:da:48:45:74:f0:46:c8:b4:ee:82:57:47:
                    66:15:c2:e9:c8:27:89:c4:95:39:4c:23:34:4a:3c:
                    22:30:b9:bc:d1:1f:93:4c:61:22:0c:9f:f9:b4:2c:
                    74:e6:da:f5:0a:76:1c:93:c2:d3:bf:24:af:f5:05:
                    2b:5b:d8:d0:7b:37:3d:1d:08:d4:3e:04:1c:ca:b8:
                    1b:21:d3:20:69:c4:4e:05:cf:05:5c:c6:a1:5d:20:
                    70:2d:36:b4:80:5c:75:20:50:d7:c2:b5:9e:a7:12:
                    4a:3a:7c:93:32:6b:6e:90:d0:c2:75:c2:e6:36:ff:
                    1f:15:7d:d3:5c:3d:10:f9:3b:7c:97:b0:ee:c4:1b:
                    8c:61:cf:3f:97:95:f6:0b:8b:18:ab:50:c6:50:1d:
                    10:eb:10:ff:fa:1b:6c:2a:84:5c:89:9e:2c:f3:81:
                    0f:0d:8a:e3:46:6f:22:52:93:d6:ed:d6:83:4e:33:
                    d3:97:23
                Exponent: 65537 (0x10001)
        X509v3 extensions:
            X509v3 Basic Constraints: 
                CA:FALSE
            X509v3 Key Usage: 
                Digital Signature, Non Repudiation, Key Encipherment, Data Encipherment
            X509v3 Extended Key Usage: 
                TLS Web Client Authentication
            Netscape Comment: 
                OpenSSL Generated Certificate
            X509v3 Subject Key Identifier: 
                92:A7:B3:94:EA:5A:10:02:AC:64:2A:9C:C1:FF:35:83:CF:F8:6F:7D
            X509v3 Authority Key Identifier: 
                keyid:8C:11:B1:CD:16:03:CD:70:4F:03:79:7C:DC:AF:B5:68:6A:A7:83:65

            X509v3 CRL Distribution Points: 

                Full Name:
                  URI:http://192.168.21.89/rootcrl.pem

    Signature Algorithm: sha256WithRSAEncryption
         a9:c6:c1:de:cc:eb:c3:01:8e:bc:0c:94:10:cf:14:a2:c3:08:
         8a:d6:78:0e:51:75:7f:4a:6a:f2:6c:48:18:a9:3f:c4:ab:97:
         b1:3a:47:ed:bb:d0:b5:ed:9c:00:2f:df:1b:bf:52:62:ed:a7:
         c1:7d:30:b4:78:cb:1f:45:97:b1:82:2e:0b:dd:1f:1f:0e:f1:
         18:30:45:35:94:26:3e:3b:a6:dc:51:c1:d8:8a:ac:69:0e:ac:
         1f:ae:a0:11:3a:a0:d3:3c:24:c7:61:84:11:08:0f:a0:56:b0:
         83:60:33:d1:51:49:78:d0:77:b3:84:52:3a:e0:11:3a:e5:d9:
         16:77:e2:99:a5:ee:5b:a9:72:be:c0:e8:a7:6e:a4:d2:31:b4:
         ff:69:70:0d:f4:17:a4:eb:9d:43:07:10:ae:a6:2b:1a:73:33:
         25:ea:fe:7d:82:66:99:08:8e:18:3e:08:5f:eb:98:ba:c2:26:
         80:95:46:d6:1b:8e:7d:93:f9:1a:f3:86:8a:31:ff:af:f4:cb:
         dd:46:a0:27:90:3c:b5:08:cb:80:8b:59:bb:db:cf:b1:77:fb:
         fd:fe:5b:6d:77:6f:a2:02:b8:7e:5a:45:76:fd:a8:aa:43:2b:
         66:f8:21:be:8c:a5:74:18:50:d8:50:55:59:83:47:6a:ab:51:
         d6:82:a4:70:4a:74:4e:a8:bc:a7:d2:36:33:5a:9c:f9:5a:ab:
         ec:64:41:1c:1d:31:96:1d:0c:77:c9:40:6a:1d:1d:a1:d7:77:
         b4:ae:60:e2:2d:4d:be:9b:6f:08:dc:c0:6b:69:0f:be:6b:a8:
         c5:28:c7:af:c6:bc:0c:69:2b:fa:9e:a8:d7:ba:6c:21:29:9f:
         43:de:c3:20:31:4d:44:2d:b2:76:6c:2e:1e:82:68:c8:34:d0:
         21:f5:09:0f:2b:68:61:16:f5:7f:98:28:8e:e6:a3:94:0d:4f:
         31:3d:e7:c6:7b:06:de:cd:71:14:59:78:d7:ff:8c:2b:5b:46:
         5d:8b:76:6a:0c:4b:88:5d:02:9b:6b:a6:da:be:87:f4:b0:0f:
         ff:04:b1:a4:10:b3:f5:9c:ae:88:c8:48:a8:5d:12:b0:cd:c6:
         5e:c7:eb:9e:86:c8:8b:a4:fe:91:e4:e4:98:5d:05:5b:73:20:
         70:3b:8a:61:fe:6e:2b:a8:9f:ad:71:20:25:7c:36:61:62:9f:
         d8:2a:f6:b4:8b:98:47:76:01:f8:b0:c1:ce:24:74:47:f1:03:
         05:66:03:f2:e8:0a:64:20:1a:15:db:51:4e:a1:93:be:65:56:
         6c:cb:f2:78:ce:57:e5:a7:d6:0b:b1:3d:67:7c:4e:69:4d:42:
         b3:98:0c:36:9e:87:0d:b6
-----BEGIN CERTIFICATE-----
MIIGFTCCA/2gAwIBAgIBAjANBgkqhkiG9w0BAQsFADBeMQswCQYDVQQGEwJCQTEL
MAkGA1UECBMCUlMxITAfBgNVBAoTGEVsZWt0cm90ZWhuaWNraSBmYWt1bHRldDER
MA8GA1UECxQIQ0FfVmFuamExDDAKBgNVBAMTA0NBMjAeFw0yMjA0MDcxMjM1Mzla
Fw0yMzA0MDcxMjM1MzlaMGoxCzAJBgNVBAYTAkJBMQswCQYDVQQIEwJSUzEhMB8G
A1UEChMYRWxla3Ryb3RlaG5pY2tpIGZha3VsdGV0MREwDwYDVQQLFAhDQV9WYW5q
YTEYMBYGA1UEAxQPZGF2aWRAZW1haWwuY29tMIICIjANBgkqhkiG9w0BAQEFAAOC
Ag8AMIICCgKCAgEAxJ/Y72Qp5fP0TywtTnQqC9TXNhPsuEW1q/GLBYp5EFHRG5uV
fnRA0VGNyzF7yIZXD44YKG6do6jQJIwIAFiV5ISO8FbAzIvsczXlnyNSoisX5uP9
/jZdWKTBHaXwQ+GJnQdEBPVFa9nkePv1IwzNG/WR4LIzxF3V5nsYzIypRcVaij9S
FxWhe0yP40+bjoiusYf4lSTDhH/Tgalj+3AQMi/EQwt+fik4EeKQwUoXOiqAMtdu
uGxKc+preg6cN8k2jIt17NZG3aLY3xBSEosw9ayu0DDzAVgizCwaqw3iaRAEu9BR
aT30Mzi9IqBFNL0a/9T4fptepnVTalLUxqjzTm2zamp77S3T1AVT60Vtweq69WKw
CXkQor9vDai/X1d4pJoVjcoxvb+Y4GNzsLWOvUvmxaS8R6GLDjMv9NwgxwbrDHYj
aP42e1OFTXbaSEV08EbItO6CV0dmFcLpyCeJxJU5TCM0SjwiMLm80R+TTGEiDJ/5
tCx05tr1CnYck8LTvySv9QUrW9jQezc9HQjUPgQcyrgbIdMgacROBc8FXMahXSBw
LTa0gFx1IFDXwrWepxJKOnyTMmtukNDCdcLmNv8fFX3TXD0Q+Tt8l7DuxBuMYc8/
l5X2C4sYq1DGUB0Q6xD/+htsKoRciZ4s84EPDYrjRm8iUpPW7daDTjPTlyMCAwEA
AaOB0TCBzjAJBgNVHRMEAjAAMAsGA1UdDwQEAwIE8DATBgNVHSUEDDAKBggrBgEF
BQcDAjAsBglghkgBhvhCAQ0EHxYdT3BlblNTTCBHZW5lcmF0ZWQgQ2VydGlmaWNh
dGUwHQYDVR0OBBYEFJKns5TqWhACrGQqnMH/NYPP+G99MB8GA1UdIwQYMBaAFIwR
sc0WA81wTwN5fNyvtWhqp4NlMDEGA1UdHwQqMCgwJqAkoCKGIGh0dHA6Ly8xOTIu
MTY4LjIxLjg5L3Jvb3RjcmwucGVtMA0GCSqGSIb3DQEBCwUAA4ICAQCpxsHezOvD
AY68DJQQzxSiwwiK1ngOUXV/SmrybEgYqT/Eq5exOkftu9C17ZwAL98bv1Ji7afB
fTC0eMsfRZexgi4L3R8fDvEYMEU1lCY+O6bcUcHYiqxpDqwfrqAROqDTPCTHYYQR
CA+gVrCDYDPRUUl40HezhFI64BE65dkWd+KZpe5bqXK+wOinbqTSMbT/aXAN9Bek
651DBxCupisaczMl6v59gmaZCI4YPghf65i6wiaAlUbWG459k/ka84aKMf+v9Mvd
RqAnkDy1CMuAi1m728+xd/v9/lttd2+iArh+WkV2/aiqQytm+CG+jKV0GFDYUFVZ
g0dqq1HWgqRwSnROqLyn0jYzWpz5WqvsZEEcHTGWHQx3yUBqHR2h13e0rmDiLU2+
m28I3MBraQ++a6jFKMevxrwMaSv6nqjXumwhKZ9D3sMgMU1ELbJ2bC4egmjINNAh
9QkPK2hhFvV/mCiO5qOUDU8xPefGewbezXEUWXjX/4wrW0Zdi3ZqDEuIXQKba6ba
vof0sA//BLGkELP1nK6IyEioXRKwzcZex+uehsiLpP6R5OSYXQVbcyBwO4ph/m4r
qJ+tcSAlfDZhYp/YKva0i5hHdgH4sMHOJHRH8QMFZgPy6ApkIBoV21FOoZO+ZVZs
y/J4zlflp9YLsT1nfE5pTUKzmAw2nocNtg==
-----END CERTIFICATE-----
