Certificate:
    Data:
        Version: 3 (0x2)
        Serial Number: 4 (0x4)
        Signature Algorithm: sha256WithRSAEncryption
        Issuer: C=BA, ST=RS, O=Elektrotehnicki fakultet, OU=CA_Vanja, CN=CA2
        Validity
            Not Before: Apr  7 16:51:33 2022 GMT
            Not After : Apr  7 16:51:33 2023 GMT
        Subject: C=BA, ST=RS, O=Elektrotehnicki fakultet, OU=CA_Vanja, CN=marko@gmail.com
        Subject Public Key Info:
            Public Key Algorithm: rsaEncryption
                RSA Public-Key: (4096 bit)
                Modulus:
                    00:c4:3f:fe:ef:cf:88:91:c0:9d:5b:96:61:88:6e:
                    0f:6c:f5:41:a1:f4:9f:95:30:70:3e:20:b6:13:21:
                    bd:f9:e9:8d:6d:3f:fc:48:3b:9b:5b:e2:2e:6e:ad:
                    0d:9d:44:49:c7:8f:d0:e2:52:9b:c3:7c:93:01:ad:
                    d6:e3:82:1b:38:31:27:68:96:9b:5f:eb:93:1b:a7:
                    f6:5e:4d:14:ed:00:ee:cd:bb:77:53:ec:2f:9d:18:
                    ec:36:ce:97:85:ee:f7:73:5b:92:ba:43:a0:9d:9d:
                    1e:2e:36:c7:1b:55:ea:71:2f:c5:97:67:e3:8b:ef:
                    47:86:96:99:4e:59:0f:c7:30:95:cb:5d:80:d3:a6:
                    12:80:e0:43:37:6c:e9:10:48:46:fa:ab:bd:0a:41:
                    b9:ed:87:c0:6e:68:32:a9:d2:ff:d1:75:41:3f:14:
                    ec:10:7e:b8:37:8c:ba:e5:36:06:95:a8:38:f9:3d:
                    48:eb:2d:a9:2b:46:bb:24:f6:63:86:25:29:64:66:
                    37:e8:46:b4:87:e4:5a:83:da:5d:fc:53:be:f2:c1:
                    37:0d:bc:b3:6e:06:dc:02:b0:3e:f5:94:52:cd:50:
                    b5:2c:1b:63:f0:23:15:bf:2d:c7:60:fd:b2:6c:72:
                    d3:7f:7f:9c:10:47:06:71:33:48:68:8a:62:16:f3:
                    14:85:e5:d5:21:95:66:23:38:82:8f:03:9d:2e:62:
                    33:00:23:45:36:50:c7:50:50:82:f5:89:6e:d2:72:
                    e9:2f:5b:80:4a:0e:02:f9:5a:94:e8:bc:96:9e:a4:
                    9a:6f:49:e4:47:91:75:39:ca:40:df:17:a5:e9:f2:
                    88:19:06:df:de:9f:61:a7:d8:a2:66:d6:08:5a:2d:
                    fd:b6:67:d1:40:09:ef:e4:18:fa:a4:7b:ae:5a:64:
                    51:62:6e:21:af:c1:95:6f:f6:91:50:52:5c:e3:7b:
                    a3:ef:07:09:3a:56:44:48:f7:24:4d:2b:d4:8e:d2:
                    55:d5:01:ba:58:a3:4e:37:01:2e:e7:04:0b:c6:8f:
                    ce:9f:fd:15:70:6a:42:4e:a6:95:90:4d:26:a0:7a:
                    dc:ad:97:e8:93:51:da:60:3c:c8:6a:97:24:a8:28:
                    09:83:5f:da:39:3c:ca:05:ed:7a:7a:a2:cd:03:ad:
                    bb:92:bf:fb:8c:57:49:bd:5c:7b:48:07:3e:39:94:
                    23:86:8f:89:96:8a:53:03:91:0b:ef:7d:8d:f8:d9:
                    ba:cf:ef:c9:13:44:87:86:6f:ab:2f:41:25:f2:c2:
                    99:19:8e:aa:f4:ee:2a:96:8c:59:cc:90:42:b4:a9:
                    e3:a8:60:de:ce:a8:1f:4c:d6:d5:cf:20:dd:7a:ac:
                    d6:f6:4d
                Exponent: 65537 (0x10001)
        X509v3 extensions:
            X509v3 Basic Constraints: 
                CA:FALSE
            X509v3 Key Usage: 
                Digital Signature, Non Repudiation, Key Encipherment, Data Encipherment
            X509v3 Extended Key Usage: 
                TLS Web Client Authentication
            Netscape Comment: 
                OpenSSL Generated Certificate
            X509v3 Subject Key Identifier: 
                08:33:B9:DA:51:BB:D4:7A:54:49:1C:6B:D4:58:15:8B:ED:CA:61:7A
            X509v3 Authority Key Identifier: 
                keyid:8C:11:B1:CD:16:03:CD:70:4F:03:79:7C:DC:AF:B5:68:6A:A7:83:65

            X509v3 CRL Distribution Points: 

                Full Name:
                  URI:http://192.168.21.89/rootcrl.pem

    Signature Algorithm: sha256WithRSAEncryption
         cb:bb:6d:0d:7c:08:ce:e2:ca:9e:0b:a8:24:bb:52:61:6e:51:
         11:4f:53:6b:f0:af:b5:4f:e0:24:24:b6:c9:b1:d6:14:3f:53:
         f3:b7:a2:29:88:49:25:4a:2b:b8:0a:6a:b5:68:4b:a1:ca:93:
         a8:54:02:1f:dd:7b:10:fa:00:6e:eb:74:67:15:3b:68:f2:05:
         3e:81:e7:cb:58:d5:1d:9d:23:23:1a:ec:78:33:d6:a1:c0:10:
         f9:84:1a:fe:65:cf:ff:a7:5f:db:53:6d:6f:38:ae:e4:78:67:
         93:eb:d3:69:70:31:73:63:bc:b9:7c:4e:9f:e1:1d:fe:90:79:
         3f:40:ef:f3:65:dd:9c:de:f0:be:a3:dc:7b:51:57:1f:56:24:
         c5:ea:89:b3:18:cd:df:46:46:5c:94:0f:d3:31:b4:f5:a6:b6:
         f0:84:f3:b5:3c:54:ed:71:96:a6:4e:cf:cf:b6:7f:14:af:78:
         13:00:98:1d:ad:23:61:11:3d:a3:59:6b:2c:1f:8a:9b:3d:4a:
         5c:a2:d6:e7:5d:75:a5:44:cf:af:2c:59:fd:46:9f:e2:b3:9d:
         0b:80:f2:c2:c1:98:90:2d:30:0b:45:72:be:5b:53:a7:8d:34:
         22:19:14:18:8f:a5:91:7e:fd:ba:74:1f:be:47:4a:6b:e6:55:
         18:b9:0d:0e:42:2b:65:31:ac:2c:4a:9e:b0:93:1d:1d:85:28:
         87:54:dc:ee:1c:83:41:bd:67:c1:76:29:ab:22:71:0a:47:7a:
         c4:59:77:32:71:d1:bb:4c:20:bf:9a:8f:d4:de:9c:38:93:ab:
         04:d4:23:50:a0:50:e1:4c:af:2e:f1:45:38:96:7e:6b:1d:84:
         4d:03:e6:09:06:cd:95:98:f4:b2:fe:1a:ee:f9:d6:bb:e8:c0:
         81:fa:f3:d8:34:0a:c9:54:b6:89:83:2d:c3:4f:ef:15:94:bf:
         58:aa:12:76:57:9b:f0:66:cb:b5:2a:75:15:19:32:be:3c:3f:
         6a:65:c8:56:80:d8:bc:ff:72:9c:73:10:bf:01:22:14:fb:ad:
         4f:e3:f8:73:a8:18:0b:bf:58:23:fb:4b:fe:3c:32:45:ee:5a:
         be:66:49:f1:27:ce:92:1f:d7:bb:14:bc:0d:b6:5a:7f:21:45:
         34:7b:00:bf:0f:01:f9:72:62:fb:bb:6b:35:26:2b:66:e4:9c:
         19:21:0b:3d:b1:a6:12:af:82:a9:6d:b7:54:a0:28:43:95:1d:
         60:da:24:d9:c9:85:26:3b:87:df:91:f8:ed:7b:3f:e5:b6:34:
         21:b3:08:42:d1:f7:a2:f2:56:da:52:bf:e3:bf:f3:77:f9:24:
         14:e6:96:74:69:be:43:62
-----BEGIN CERTIFICATE-----
MIIGFTCCA/2gAwIBAgIBBDANBgkqhkiG9w0BAQsFADBeMQswCQYDVQQGEwJCQTEL
MAkGA1UECBMCUlMxITAfBgNVBAoTGEVsZWt0cm90ZWhuaWNraSBmYWt1bHRldDER
MA8GA1UECxQIQ0FfVmFuamExDDAKBgNVBAMTA0NBMjAeFw0yMjA0MDcxNjUxMzNa
Fw0yMzA0MDcxNjUxMzNaMGoxCzAJBgNVBAYTAkJBMQswCQYDVQQIEwJSUzEhMB8G
A1UEChMYRWxla3Ryb3RlaG5pY2tpIGZha3VsdGV0MREwDwYDVQQLFAhDQV9WYW5q
YTEYMBYGA1UEAxQPbWFya29AZ21haWwuY29tMIICIjANBgkqhkiG9w0BAQEFAAOC
Ag8AMIICCgKCAgEAxD/+78+IkcCdW5ZhiG4PbPVBofSflTBwPiC2EyG9+emNbT/8
SDubW+Iubq0NnURJx4/Q4lKbw3yTAa3W44IbODEnaJabX+uTG6f2Xk0U7QDuzbt3
U+wvnRjsNs6Xhe73c1uSukOgnZ0eLjbHG1XqcS/Fl2fji+9HhpaZTlkPxzCVy12A
06YSgOBDN2zpEEhG+qu9CkG57YfAbmgyqdL/0XVBPxTsEH64N4y65TYGlag4+T1I
6y2pK0a7JPZjhiUpZGY36Ea0h+Rag9pd/FO+8sE3DbyzbgbcArA+9ZRSzVC1LBtj
8CMVvy3HYP2ybHLTf3+cEEcGcTNIaIpiFvMUheXVIZVmIziCjwOdLmIzACNFNlDH
UFCC9Ylu0nLpL1uASg4C+VqU6LyWnqSab0nkR5F1OcpA3xel6fKIGQbf3p9hp9ii
ZtYIWi39tmfRQAnv5Bj6pHuuWmRRYm4hr8GVb/aRUFJc43uj7wcJOlZESPckTSvU
jtJV1QG6WKNONwEu5wQLxo/On/0VcGpCTqaVkE0moHrcrZfok1HaYDzIapckqCgJ
g1/aOTzKBe16eqLNA627kr/7jFdJvVx7SAc+OZQjho+JlopTA5EL732N+Nm6z+/J
E0SHhm+rL0El8sKZGY6q9O4qloxZzJBCtKnjqGDezqgfTNbVzyDdeqzW9k0CAwEA
AaOB0TCBzjAJBgNVHRMEAjAAMAsGA1UdDwQEAwIE8DATBgNVHSUEDDAKBggrBgEF
BQcDAjAsBglghkgBhvhCAQ0EHxYdT3BlblNTTCBHZW5lcmF0ZWQgQ2VydGlmaWNh
dGUwHQYDVR0OBBYEFAgzudpRu9R6VEkca9RYFYvtymF6MB8GA1UdIwQYMBaAFIwR
sc0WA81wTwN5fNyvtWhqp4NlMDEGA1UdHwQqMCgwJqAkoCKGIGh0dHA6Ly8xOTIu
MTY4LjIxLjg5L3Jvb3RjcmwucGVtMA0GCSqGSIb3DQEBCwUAA4ICAQDLu20NfAjO
4sqeC6gku1JhblERT1Nr8K+1T+AkJLbJsdYUP1Pzt6IpiEklSiu4Cmq1aEuhypOo
VAIf3XsQ+gBu63RnFTto8gU+gefLWNUdnSMjGux4M9ahwBD5hBr+Zc//p1/bU21v
OK7keGeT69NpcDFzY7y5fE6f4R3+kHk/QO/zZd2c3vC+o9x7UVcfViTF6omzGM3f
RkZclA/TMbT1prbwhPO1PFTtcZamTs/Ptn8Ur3gTAJgdrSNhET2jWWssH4qbPUpc
otbnXXWlRM+vLFn9Rp/is50LgPLCwZiQLTALRXK+W1OnjTQiGRQYj6WRfv26dB++
R0pr5lUYuQ0OQitlMawsSp6wkx0dhSiHVNzuHINBvWfBdimrInEKR3rEWXcycdG7
TCC/mo/U3pw4k6sE1CNQoFDhTK8u8UU4ln5rHYRNA+YJBs2VmPSy/hru+da76MCB
+vPYNArJVLaJgy3DT+8VlL9YqhJ2V5vwZsu1KnUVGTK+PD9qZchWgNi8/3KccxC/
ASIU+61P4/hzqBgLv1gj+0v+PDJF7lq+ZknxJ86SH9e7FLwNtlp/IUU0ewC/DwH5
cmL7u2s1Jitm5JwZIQs9saYSr4KpbbdUoChDlR1g2iTZyYUmO4ffkfjtez/ltjQh
swhC0fei8lbaUr/jv/N3+SQU5pZ0ab5DYg==
-----END CERTIFICATE-----
