Certificate:
    Data:
        Version: 3 (0x2)
        Serial Number: 5 (0x5)
        Signature Algorithm: sha256WithRSAEncryption
        Issuer: C=BA, ST=RS, O=Elektrotehnicki fakultet, OU=CA_Vanja, CN=CA2
        Validity
            Not Before: Apr  7 16:52:55 2022 GMT
            Not After : Apr  7 16:52:55 2023 GMT
        Subject: C=BA, ST=RS, O=Elektrotehnicki fakultet, OU=CA_Vanja, CN=sanja@gmail.com
        Subject Public Key Info:
            Public Key Algorithm: rsaEncryption
                RSA Public-Key: (4096 bit)
                Modulus:
                    00:dd:48:d9:35:49:32:af:11:8e:d0:1e:93:58:10:
                    01:af:a4:de:0d:4c:a6:8b:9a:54:1e:d8:ba:fa:d5:
                    19:2c:5e:51:c1:da:5c:0b:e9:6e:1e:f1:fe:ad:82:
                    21:b9:e9:a5:8a:62:03:70:81:1c:f3:c7:bb:db:83:
                    74:cd:49:6d:76:e1:ed:8f:e8:37:ac:6e:b2:65:f1:
                    17:93:d1:61:ff:89:ea:36:92:6a:ec:98:c0:35:2c:
                    47:51:92:28:00:75:24:b5:08:fe:e6:a7:3d:d9:48:
                    d4:a7:06:16:56:6e:05:1b:2b:3e:e4:3e:db:c9:b6:
                    a4:d9:f6:b5:59:d7:f6:9f:bb:8c:18:9c:2d:e7:fe:
                    e1:b6:47:52:81:94:bd:8f:2d:26:c9:e0:36:ae:99:
                    14:69:e9:8a:d2:91:27:2d:7b:40:d3:56:d9:ef:55:
                    41:b5:c0:ac:2c:29:06:63:94:47:d4:15:8e:33:82:
                    da:15:c2:6b:f1:34:e8:5c:35:bd:7a:dd:c4:4f:57:
                    7e:03:08:98:16:0c:21:dd:f3:99:70:61:4e:ab:89:
                    1a:c0:bf:ef:40:14:60:b0:c9:60:5d:6f:8f:bd:da:
                    23:0f:f2:30:5a:bc:ad:23:65:41:ee:85:5c:ff:75:
                    f8:b7:58:72:be:1a:7b:24:5c:7d:64:54:28:64:d8:
                    41:bd:9d:35:b1:c7:d8:28:e7:19:44:b3:5c:8d:e5:
                    65:eb:9c:6c:5f:9c:2d:19:ef:40:6f:d4:6d:67:57:
                    d4:a9:f7:fe:6b:90:f2:c8:d0:95:a9:30:0c:56:01:
                    23:cd:f1:f1:6d:f5:0b:95:0c:f8:2f:d8:f2:cb:f5:
                    ad:bc:64:ff:ca:00:c9:5d:18:66:bc:08:82:ad:1d:
                    fc:7b:49:e1:0b:95:ca:d8:bc:7e:59:a2:bc:3b:23:
                    10:d1:0a:1f:74:21:1b:a6:c5:2c:f0:bd:40:7e:1d:
                    e2:93:b2:48:7b:5e:99:6f:de:16:00:e7:39:1e:da:
                    f1:3d:76:a3:d0:49:2f:28:81:6d:2f:f0:35:5f:cb:
                    6a:6f:9f:e6:6a:bb:c5:ad:d0:2e:b3:39:4a:ba:dc:
                    ce:42:7a:5a:f7:6e:24:86:f4:62:4e:98:6f:bc:61:
                    3c:ba:1c:6c:33:f5:99:8a:d2:20:91:c5:ad:48:89:
                    20:e5:f7:0c:95:09:9f:d8:41:28:f4:e8:2e:4a:6e:
                    f3:72:d4:25:d5:e2:df:15:cf:eb:c3:c0:9c:94:f4:
                    c3:08:bf:79:81:79:fc:b3:d7:c2:d6:f4:8f:b3:e8:
                    d3:12:98:1d:e8:81:7f:d9:10:f2:69:e9:fc:5f:e6:
                    73:9b:d5:ee:64:76:f5:79:e0:c9:dd:96:24:f8:79:
                    4c:2f:19
                Exponent: 65537 (0x10001)
        X509v3 extensions:
            X509v3 Basic Constraints: 
                CA:FALSE
            X509v3 Key Usage: 
                Digital Signature, Non Repudiation, Key Encipherment, Data Encipherment
            X509v3 Extended Key Usage: 
                TLS Web Client Authentication
            Netscape Comment: 
                OpenSSL Generated Certificate
            X509v3 Subject Key Identifier: 
                53:06:8A:FB:1A:6D:38:D2:8C:94:B5:0A:85:F1:AF:72:1C:88:52:E8
            X509v3 Authority Key Identifier: 
                keyid:8C:11:B1:CD:16:03:CD:70:4F:03:79:7C:DC:AF:B5:68:6A:A7:83:65

            X509v3 CRL Distribution Points: 

                Full Name:
                  URI:http://192.168.21.89/rootcrl.pem

    Signature Algorithm: sha256WithRSAEncryption
         72:cb:d0:d9:94:57:16:81:df:1f:53:10:3c:8c:ce:1f:18:3a:
         7f:98:6b:d6:65:41:f3:a2:35:a9:4f:19:a8:f5:67:f5:a6:a3:
         26:66:ae:8d:28:db:a8:66:bc:ca:db:c7:b4:a5:e6:22:a6:0b:
         cf:e6:f1:56:44:8e:a4:5a:63:a9:8f:48:ea:5f:85:e1:f7:f3:
         77:37:06:be:a3:c4:95:c2:44:50:5b:1c:49:97:64:51:8a:8e:
         5b:23:52:cc:5f:5d:6e:36:a9:26:b3:78:f9:6b:d5:91:25:06:
         ab:07:7e:38:ea:e8:c7:03:6f:0c:07:58:62:9f:d9:80:56:85:
         fb:31:84:ca:f0:94:57:e4:c3:e9:ee:49:46:07:bf:aa:e6:38:
         06:4b:4a:d6:99:94:0b:ff:3a:57:76:78:96:e3:ae:3c:24:cc:
         b7:79:99:df:1f:59:b6:82:d2:9f:14:82:04:d5:5d:49:fc:e5:
         99:c0:49:e6:23:18:dc:1c:35:8c:a7:ba:1f:6e:e8:aa:ad:50:
         0f:bc:4b:a9:4d:ed:98:4c:eb:28:2e:4d:3a:10:ad:8a:66:ef:
         42:8a:4b:b1:30:ca:c5:f1:37:14:78:72:65:b5:d6:67:27:72:
         42:63:1b:9e:21:bc:4e:a6:70:14:be:65:66:a1:3c:2f:06:5a:
         16:2c:da:45:59:29:33:9e:ee:52:50:9a:58:a7:e1:65:3c:c6:
         9b:4c:79:8e:75:19:80:cb:38:a8:82:f4:71:a1:69:c4:ff:eb:
         84:00:a5:d4:1f:ff:1b:2b:a4:7c:e5:ff:6c:0c:f8:24:fb:10:
         ce:09:e9:bf:a0:42:e2:38:bb:a7:24:97:3b:81:dd:95:48:5b:
         7f:72:92:d7:cc:8e:7d:49:8e:0a:50:81:c9:df:dc:b0:6f:d5:
         0e:38:2d:3e:68:61:54:36:af:2f:7f:69:ba:98:49:db:3e:17:
         62:a6:82:b8:b7:39:76:b1:4b:61:2c:dd:31:dd:ed:e3:cf:a6:
         dc:c3:8b:78:4d:40:65:b8:b6:6f:43:0e:91:f9:54:4a:f3:17:
         ba:0a:ee:22:06:d9:45:41:7e:df:72:69:c3:d4:d0:ef:10:f2:
         6b:19:1c:18:82:a0:0c:42:bb:92:d6:21:27:c1:db:d8:4d:6e:
         15:5e:e2:62:31:11:5e:10:86:ce:40:cd:e1:f4:90:62:36:5a:
         64:f4:49:d9:23:69:c9:f2:de:a2:6e:6e:de:84:dd:ab:2c:41:
         0c:24:71:98:3d:e2:17:9f:81:30:4e:41:70:c8:56:f7:f7:97:
         a1:bd:96:eb:41:59:03:85:ba:5c:6e:d6:44:59:8d:35:80:2a:
         44:23:b4:aa:88:01:d1:3d
-----BEGIN CERTIFICATE-----
MIIGFTCCA/2gAwIBAgIBBTANBgkqhkiG9w0BAQsFADBeMQswCQYDVQQGEwJCQTEL
MAkGA1UECBMCUlMxITAfBgNVBAoTGEVsZWt0cm90ZWhuaWNraSBmYWt1bHRldDER
MA8GA1UECxQIQ0FfVmFuamExDDAKBgNVBAMTA0NBMjAeFw0yMjA0MDcxNjUyNTVa
Fw0yMzA0MDcxNjUyNTVaMGoxCzAJBgNVBAYTAkJBMQswCQYDVQQIEwJSUzEhMB8G
A1UEChMYRWxla3Ryb3RlaG5pY2tpIGZha3VsdGV0MREwDwYDVQQLFAhDQV9WYW5q
YTEYMBYGA1UEAxQPc2FuamFAZ21haWwuY29tMIICIjANBgkqhkiG9w0BAQEFAAOC
Ag8AMIICCgKCAgEA3UjZNUkyrxGO0B6TWBABr6TeDUymi5pUHti6+tUZLF5Rwdpc
C+luHvH+rYIhuemlimIDcIEc88e724N0zUltduHtj+g3rG6yZfEXk9Fh/4nqNpJq
7JjANSxHUZIoAHUktQj+5qc92UjUpwYWVm4FGys+5D7bybak2fa1Wdf2n7uMGJwt
5/7htkdSgZS9jy0myeA2rpkUaemK0pEnLXtA01bZ71VBtcCsLCkGY5RH1BWOM4La
FcJr8TToXDW9et3ET1d+AwiYFgwh3fOZcGFOq4kawL/vQBRgsMlgXW+PvdojD/Iw
WrytI2VB7oVc/3X4t1hyvhp7JFx9ZFQoZNhBvZ01scfYKOcZRLNcjeVl65xsX5wt
Ge9Ab9RtZ1fUqff+a5DyyNCVqTAMVgEjzfHxbfULlQz4L9jyy/WtvGT/ygDJXRhm
vAiCrR38e0nhC5XK2Lx+WaK8OyMQ0QofdCEbpsUs8L1Afh3ik7JIe16Zb94WAOc5
HtrxPXaj0EkvKIFtL/A1X8tqb5/marvFrdAuszlKutzOQnpa924khvRiTphvvGE8
uhxsM/WZitIgkcWtSIkg5fcMlQmf2EEo9OguSm7zctQl1eLfFc/rw8CclPTDCL95
gXn8s9fC1vSPs+jTEpgd6IF/2RDyaen8X+Zzm9XuZHb1eeDJ3ZYk+HlMLxkCAwEA
AaOB0TCBzjAJBgNVHRMEAjAAMAsGA1UdDwQEAwIE8DATBgNVHSUEDDAKBggrBgEF
BQcDAjAsBglghkgBhvhCAQ0EHxYdT3BlblNTTCBHZW5lcmF0ZWQgQ2VydGlmaWNh
dGUwHQYDVR0OBBYEFFMGivsabTjSjJS1CoXxr3IciFLoMB8GA1UdIwQYMBaAFIwR
sc0WA81wTwN5fNyvtWhqp4NlMDEGA1UdHwQqMCgwJqAkoCKGIGh0dHA6Ly8xOTIu
MTY4LjIxLjg5L3Jvb3RjcmwucGVtMA0GCSqGSIb3DQEBCwUAA4ICAQByy9DZlFcW
gd8fUxA8jM4fGDp/mGvWZUHzojWpTxmo9Wf1pqMmZq6NKNuoZrzK28e0peYipgvP
5vFWRI6kWmOpj0jqX4Xh9/N3Nwa+o8SVwkRQWxxJl2RRio5bI1LMX11uNqkms3j5
a9WRJQarB3446ujHA28MB1hin9mAVoX7MYTK8JRX5MPp7klGB7+q5jgGS0rWmZQL
/zpXdniW4648JMy3eZnfH1m2gtKfFIIE1V1J/OWZwEnmIxjcHDWMp7ofbuiqrVAP
vEupTe2YTOsoLk06EK2KZu9CikuxMMrF8TcUeHJltdZnJ3JCYxueIbxOpnAUvmVm
oTwvBloWLNpFWSkznu5SUJpYp+FlPMabTHmOdRmAyziogvRxoWnE/+uEAKXUH/8b
K6R85f9sDPgk+xDOCem/oELiOLunJJc7gd2VSFt/cpLXzI59SY4KUIHJ39ywb9UO
OC0+aGFUNq8vf2m6mEnbPhdipoK4tzl2sUthLN0x3e3jz6bcw4t4TUBluLZvQw6R
+VRK8xe6Cu4iBtlFQX7fcmnD1NDvEPJrGRwYgqAMQruS1iEnwdvYTW4VXuJiMRFe
EIbOQM3h9JBiNlpk9EnZI2nJ8t6ibm7ehN2rLEEMJHGYPeIXn4EwTkFwyFb395eh
vZbrQVkDhbpcbtZEWY01gCpEI7SqiAHRPQ==
-----END CERTIFICATE-----
