Certificate:
    Data:
        Version: 3 (0x2)
        Serial Number: 1 (0x1)
        Signature Algorithm: sha256WithRSAEncryption
        Issuer: C=BA, ST=RS, O=Elektrotehnicki fakultet, OU=CA_Vanja, CN=CA1
        Validity
            Not Before: Feb  5 17:39:21 2022 GMT
            Not After : Feb  5 17:39:21 2023 GMT
        Subject: C=BA, ST=RS, O=Elektrotehnicki fakultet, OU=CA_Vanja, CN=VANJA
        Subject Public Key Info:
            Public Key Algorithm: rsaEncryption
                RSA Public-Key: (4096 bit)
                Modulus:
                    00:b1:e7:f6:d7:58:ef:a7:c8:1f:8d:67:0c:34:43:
                    a4:c2:8e:da:34:88:1c:09:a3:eb:98:c1:da:13:3c:
                    b6:be:66:d8:da:aa:98:59:a3:bf:27:d2:fb:f6:27:
                    5d:1d:30:d2:e6:33:d8:4d:16:2e:e5:95:77:ee:62:
                    7f:14:16:d8:47:04:75:90:ab:35:ab:89:ef:92:52:
                    10:0d:ca:1f:c6:df:b8:0f:ae:ee:f7:81:9d:70:f3:
                    f5:4c:65:a1:a0:17:21:06:6c:96:fe:9f:03:74:d0:
                    8c:f5:8d:17:b5:30:0b:6c:67:6b:3f:32:1a:b5:84:
                    0a:1e:a7:fa:cc:95:09:0a:fa:cf:38:3a:0d:78:53:
                    f3:f5:a0:1f:01:e8:e6:9f:b3:b7:3b:8f:6e:aa:65:
                    08:ee:a6:9c:03:3b:ac:e6:6a:ab:a6:b1:f6:20:89:
                    a6:a4:ef:5f:f9:9d:6a:2d:f0:d4:af:e9:fe:41:5d:
                    77:ed:ee:f5:94:70:e1:66:04:e3:35:d4:16:87:32:
                    96:4f:b5:90:9b:84:2f:77:06:ec:f6:39:6a:2f:ce:
                    00:80:6b:d8:42:00:37:c0:5a:48:70:f1:5d:d1:8d:
                    6c:73:83:ac:79:91:8e:5f:97:95:0d:ce:9d:68:fc:
                    62:4a:0e:ef:e4:46:b5:b4:50:ec:37:c7:de:67:23:
                    15:49:03:dd:2d:01:3e:54:9a:a1:4b:03:08:8c:35:
                    4d:2b:dd:95:1c:7d:72:42:4e:7b:fe:4e:be:66:fa:
                    3a:8f:b9:c1:7a:8f:b7:4e:d4:17:32:7f:41:e2:26:
                    97:58:2f:bd:29:87:2e:06:07:b8:d1:6a:22:e7:61:
                    4c:a4:c7:90:c9:6d:6f:00:8b:c1:69:46:d5:81:29:
                    ba:bb:66:0b:e6:58:b1:28:32:cb:2b:a6:27:b6:d5:
                    2a:77:9d:fe:23:02:aa:0e:52:90:99:e3:c0:da:46:
                    30:b1:ff:74:57:5c:78:58:64:f4:24:e7:f4:e0:9d:
                    e4:f3:42:9e:0b:8c:83:83:54:cd:da:0f:85:02:ed:
                    98:e4:03:ab:a0:7a:a6:4f:05:25:7d:25:c5:8c:c6:
                    2d:87:10:fb:80:4f:09:fc:1e:57:2b:2a:26:d9:b0:
                    de:6e:a1:cf:7b:cd:bc:25:03:06:38:08:da:b9:1f:
                    a8:67:67:49:cc:d5:11:67:b9:de:96:92:80:69:dc:
                    97:eb:50:51:7e:d1:23:65:ad:36:59:78:b8:2b:40:
                    f8:22:6f:34:46:82:4f:be:3a:18:86:85:24:c1:2c:
                    9e:13:10:6f:c4:e4:0b:6d:cb:9a:14:57:03:cb:78:
                    4c:f1:b6:fd:68:23:dc:8c:34:ed:47:65:c9:9f:e4:
                    e6:35:4f
                Exponent: 65537 (0x10001)
        X509v3 extensions:
            X509v3 Basic Constraints: 
                CA:FALSE
            X509v3 Key Usage: 
                Digital Signature, Non Repudiation, Key Encipherment, Data Encipherment
            X509v3 Extended Key Usage: 
                TLS Web Client Authentication
            Netscape Comment: 
                OpenSSL Generated Certificate
            X509v3 Subject Key Identifier: 
                66:A3:D4:14:9C:F9:2F:D2:7F:2C:13:53:0D:12:6E:B8:40:35:C1:CC
            X509v3 Authority Key Identifier: 
                keyid:9C:3A:58:54:BB:04:4F:C2:8E:D9:52:ED:CC:5F:47:A4:77:FF:1B:21

            X509v3 CRL Distribution Points: 

                Full Name:
                  URI:http://192.168.21.89/rootcrl.pem

    Signature Algorithm: sha256WithRSAEncryption
         9c:a3:94:ba:39:9a:c1:b4:a8:ae:6f:79:e7:d5:11:f7:95:5f:
         e7:3f:23:21:c6:0d:83:74:81:4d:4f:cf:9d:0f:e0:92:d2:9e:
         7b:6b:f7:33:1e:83:79:91:5f:33:65:ea:9b:ba:e2:cc:a9:f0:
         dd:c8:fc:5e:e9:0d:4f:7d:f4:ac:27:50:15:57:27:c5:7c:d4:
         19:50:ee:4c:bc:6c:7f:19:b8:92:ae:f6:67:cc:f9:18:98:36:
         5a:e5:e9:2d:0d:8d:ff:8a:2a:19:c1:24:47:c5:e2:a3:22:ee:
         0a:49:11:d5:be:0c:4c:ba:d4:43:09:cd:a7:24:b3:ba:ef:37:
         35:3b:c8:4e:43:59:f9:b9:ed:d7:b9:52:71:78:f6:a3:b8:1b:
         71:1a:d8:bb:ed:66:ec:3d:ce:79:dd:2d:eb:0d:7c:a7:b2:a0:
         1c:f6:09:17:1b:40:e1:67:3b:fb:cd:9c:6e:dc:94:19:41:65:
         26:ca:82:cd:54:5b:20:43:58:e6:07:00:40:60:17:ed:18:ba:
         6e:ab:37:75:ff:ad:49:52:9a:39:fe:4c:91:82:97:97:e2:c4:
         b3:cb:29:44:bc:87:25:3f:e7:a2:c1:d1:fc:28:d7:21:f7:38:
         c5:b0:96:62:51:c8:7b:25:34:7a:f0:97:4f:4c:77:71:d9:da:
         7e:1f:c7:c1:74:1d:19:1b:be:36:1a:ff:a0:fc:ac:f7:82:0f:
         d2:77:10:06:31:de:a3:be:68:b8:41:23:3b:93:a7:f7:c8:6b:
         4a:35:1b:59:99:00:d3:c0:6e:ac:91:66:1e:b4:5b:18:d5:8c:
         d3:c0:42:29:6f:a8:60:98:84:ae:2c:59:fe:97:09:99:2b:0a:
         50:4c:ef:be:55:cd:74:1a:44:69:66:08:e8:05:3e:8e:b7:95:
         65:0b:45:83:16:9e:e7:0b:73:a5:81:ce:31:df:73:f1:dc:f1:
         2e:51:f3:d4:06:fb:16:1b:84:2a:1e:bf:38:ef:ca:c9:32:d3:
         92:20:7f:f6:5f:c4:21:8b:73:9c:33:91:71:86:9a:24:12:5d:
         ea:a9:29:a7:be:34:cc:74:56:2d:13:2a:9f:ab:37:68:fc:ba:
         27:54:38:10:16:9d:47:9d:a7:0a:8c:bb:a8:34:90:3f:b4:60:
         65:37:dd:53:60:e8:27:39:17:a8:38:b7:2f:18:25:c1:16:86:
         7d:4f:2b:f9:13:5d:00:8a:29:aa:c5:35:1f:9b:0d:2f:1f:6a:
         f7:0d:6a:0e:51:d2:e2:70:fe:f7:37:23:ed:da:e8:c9:99:82:
         e1:6d:7a:79:85:2a:91:d9:a2:73:4c:9d:d7:d9:03:3f:04:c8:
         e9:32:6b:f9:fb:56:df:9f
-----BEGIN CERTIFICATE-----
MIIGCzCCA/OgAwIBAgIBATANBgkqhkiG9w0BAQsFADBeMQswCQYDVQQGEwJCQTEL
MAkGA1UECBMCUlMxITAfBgNVBAoTGEVsZWt0cm90ZWhuaWNraSBmYWt1bHRldDER
MA8GA1UECxQIQ0FfVmFuamExDDAKBgNVBAMTA0NBMTAeFw0yMjAyMDUxNzM5MjFa
Fw0yMzAyMDUxNzM5MjFaMGAxCzAJBgNVBAYTAkJBMQswCQYDVQQIEwJSUzEhMB8G
A1UEChMYRWxla3Ryb3RlaG5pY2tpIGZha3VsdGV0MREwDwYDVQQLFAhDQV9WYW5q
YTEOMAwGA1UEAxMFVkFOSkEwggIiMA0GCSqGSIb3DQEBAQUAA4ICDwAwggIKAoIC
AQCx5/bXWO+nyB+NZww0Q6TCjto0iBwJo+uYwdoTPLa+ZtjaqphZo78n0vv2J10d
MNLmM9hNFi7llXfuYn8UFthHBHWQqzWrie+SUhANyh/G37gPru73gZ1w8/VMZaGg
FyEGbJb+nwN00Iz1jRe1MAtsZ2s/Mhq1hAoep/rMlQkK+s84Og14U/P1oB8B6Oaf
s7c7j26qZQjuppwDO6zmaqumsfYgiaak71/5nWot8NSv6f5BXXft7vWUcOFmBOM1
1BaHMpZPtZCbhC93Buz2OWovzgCAa9hCADfAWkhw8V3RjWxzg6x5kY5fl5UNzp1o
/GJKDu/kRrW0UOw3x95nIxVJA90tAT5UmqFLAwiMNU0r3ZUcfXJCTnv+Tr5m+jqP
ucF6j7dO1Bcyf0HiJpdYL70phy4GB7jRaiLnYUykx5DJbW8Ai8FpRtWBKbq7Zgvm
WLEoMssrpie21Sp3nf4jAqoOUpCZ48DaRjCx/3RXXHhYZPQk5/TgneTzQp4LjIOD
VM3aD4UC7ZjkA6ugeqZPBSV9JcWMxi2HEPuATwn8HlcrKibZsN5uoc97zbwlAwY4
CNq5H6hnZ0nM1RFnud6WkoBp3JfrUFF+0SNlrTZZeLgrQPgibzRGgk++OhiGhSTB
LJ4TEG/E5Atty5oUVwPLeEzxtv1oI9yMNO1HZcmf5OY1TwIDAQABo4HRMIHOMAkG
A1UdEwQCMAAwCwYDVR0PBAQDAgTwMBMGA1UdJQQMMAoGCCsGAQUFBwMCMCwGCWCG
SAGG+EIBDQQfFh1PcGVuU1NMIEdlbmVyYXRlZCBDZXJ0aWZpY2F0ZTAdBgNVHQ4E
FgQUZqPUFJz5L9J/LBNTDRJuuEA1wcwwHwYDVR0jBBgwFoAUnDpYVLsET8KO2VLt
zF9HpHf/GyEwMQYDVR0fBCowKDAmoCSgIoYgaHR0cDovLzE5Mi4xNjguMjEuODkv
cm9vdGNybC5wZW0wDQYJKoZIhvcNAQELBQADggIBAJyjlLo5msG0qK5veefVEfeV
X+c/IyHGDYN0gU1Pz50P4JLSnntr9zMeg3mRXzNl6pu64syp8N3I/F7pDU999Kwn
UBVXJ8V81BlQ7ky8bH8ZuJKu9mfM+RiYNlrl6S0Njf+KKhnBJEfF4qMi7gpJEdW+
DEy61EMJzacks7rvNzU7yE5DWfm57de5UnF49qO4G3Ea2LvtZuw9znndLesNfKey
oBz2CRcbQOFnO/vNnG7clBlBZSbKgs1UWyBDWOYHAEBgF+0Yum6rN3X/rUlSmjn+
TJGCl5fixLPLKUS8hyU/56LB0fwo1yH3OMWwlmJRyHslNHrwl09Md3HZ2n4fx8F0
HRkbvjYa/6D8rPeCD9J3EAYx3qO+aLhBIzuTp/fIa0o1G1mZANPAbqyRZh60WxjV
jNPAQilvqGCYhK4sWf6XCZkrClBM775VzXQaRGlmCOgFPo63lWULRYMWnucLc6WB
zjHfc/Hc8S5R89QG+xYbhCoevzjvysky05Igf/ZfxCGLc5wzkXGGmiQSXeqpKae+
NMx0Vi0TKp+rN2j8uidUOBAWnUedpwqMu6g0kD+0YGU33VNg6Cc5F6g4ty8YJcEW
hn1PK/kTXQCKKarFNR+bDS8favcNag5R0uJw/vc3I+3a6MmZguFtenmFKpHZonNM
ndfZAz8EyOkya/n7Vt+f
-----END CERTIFICATE-----
