Certificate:
    Data:
        Version: 3 (0x2)
        Serial Number: 5 (0x5)
        Signature Algorithm: sha256WithRSAEncryption
        Issuer: C=BA, ST=RS, O=Elektrotehnicki fakultet, OU=CA_Vanja, CN=CA1
        Validity
            Not Before: Apr  7 16:50:48 2022 GMT
            Not After : Apr  7 16:50:48 2023 GMT
        Subject: C=BA, ST=RS, O=Elektrotehnicki fakultet, OU=CA_Vanja, CN=dusko@gmail.com
        Subject Public Key Info:
            Public Key Algorithm: rsaEncryption
                RSA Public-Key: (4096 bit)
                Modulus:
                    00:e7:3e:c5:0c:9a:6c:90:db:54:8e:3a:9b:ef:00:
                    5b:45:e2:a6:6b:37:b8:0e:29:b4:bc:25:63:49:fe:
                    3c:8b:a5:1b:ff:6a:04:6c:ad:c5:e0:67:75:62:2c:
                    c4:c3:84:ba:6b:c6:67:03:2a:2e:c4:da:1e:df:5e:
                    02:b5:15:cb:cd:b4:e9:69:3e:6c:1a:07:e1:f5:96:
                    fd:a8:a7:99:78:95:55:1d:eb:01:8f:82:5e:a9:f2:
                    e1:80:18:46:8a:1c:be:1f:3e:2e:4f:46:f1:d2:96:
                    a9:a0:1d:1c:dd:88:63:41:aa:a2:7b:3f:17:f2:7c:
                    d9:7a:16:fb:0c:b3:75:5c:cc:73:31:6e:64:7c:7f:
                    be:e7:39:0b:19:cb:1f:01:87:e7:03:0b:cb:ea:7d:
                    c0:c5:22:83:62:2e:99:70:81:8d:76:15:1c:20:77:
                    8f:1c:c3:f1:3b:dd:e4:49:aa:ff:a5:f0:0d:e9:5c:
                    2e:b6:6b:53:b6:2f:51:f1:f7:8e:1d:a0:e1:e8:f1:
                    0c:2b:dd:5a:08:7e:0e:9d:55:d4:e3:0a:a2:64:4d:
                    0c:9d:b1:b7:ef:46:0f:64:1b:97:ca:84:06:66:11:
                    6e:f5:a0:d2:ba:53:ba:4b:0b:bc:1f:f4:f2:58:34:
                    7a:d3:6a:31:d3:ad:02:e5:2a:f1:6e:12:4e:08:bf:
                    6e:bb:2a:e2:37:b4:d3:df:65:56:03:3b:35:43:ad:
                    74:2d:13:b1:2f:08:c6:16:d5:c5:bd:eb:50:a1:88:
                    8e:44:fc:fd:3d:94:84:52:2c:06:8d:43:82:b4:ba:
                    2d:f0:14:43:aa:dc:a2:9e:47:e5:fa:37:82:4d:f4:
                    89:14:f4:bf:3c:d5:ce:b0:e3:da:0d:ea:a5:92:53:
                    2c:d6:db:ec:31:0e:09:0c:d3:2c:64:0b:43:72:5e:
                    0d:08:78:d5:1d:54:3a:8a:5c:29:26:52:31:10:af:
                    5e:7b:5a:77:7f:e9:c1:94:00:b3:22:16:23:a3:62:
                    9d:99:a8:a3:30:f9:5f:c7:87:59:05:3d:c4:a0:03:
                    28:cd:ef:93:85:97:b0:0b:66:30:32:28:e3:c3:4e:
                    03:27:99:d1:59:48:dc:f6:55:8a:3e:0d:64:99:75:
                    92:62:0b:be:28:25:a6:d0:6d:52:73:97:f9:cb:7d:
                    7d:7b:50:4c:ec:7b:62:3b:c3:32:6c:4e:e2:c7:ea:
                    16:6e:79:a3:ea:66:f2:40:dd:75:ac:94:c0:7a:07:
                    3b:0d:3a:a8:db:67:7d:ed:63:a5:c0:a1:43:dc:71:
                    f3:19:6a:aa:ec:4d:fd:4c:c0:53:14:b5:0f:2a:c3:
                    53:62:b8:95:e7:19:e4:41:bc:b5:3c:cd:eb:02:21:
                    28:3e:93
                Exponent: 65537 (0x10001)
        X509v3 extensions:
            X509v3 Basic Constraints: 
                CA:FALSE
            X509v3 Key Usage: 
                Digital Signature, Non Repudiation, Key Encipherment, Data Encipherment
            X509v3 Extended Key Usage: 
                TLS Web Client Authentication
            Netscape Comment: 
                OpenSSL Generated Certificate
            X509v3 Subject Key Identifier: 
                B1:61:3A:90:27:7C:D8:DF:29:85:C2:08:3C:7F:71:68:58:D5:1D:5E
            X509v3 Authority Key Identifier: 
                keyid:9C:3A:58:54:BB:04:4F:C2:8E:D9:52:ED:CC:5F:47:A4:77:FF:1B:21

            X509v3 CRL Distribution Points: 

                Full Name:
                  URI:http://192.168.21.89/rootcrl.pem

    Signature Algorithm: sha256WithRSAEncryption
         75:2e:a1:d7:fa:ff:85:f7:6f:b6:66:46:e6:b1:da:8d:e2:25:
         24:25:f5:5d:a7:48:f8:03:e3:2e:ba:3e:1b:60:14:90:3a:bc:
         01:94:fb:d0:d2:a0:1e:f9:53:91:ee:cc:45:f5:d6:5a:60:0a:
         ba:f0:c2:fe:59:79:8c:89:d3:2e:72:c6:47:08:5c:9e:62:3c:
         3c:47:96:92:59:78:ad:52:3e:06:41:d6:25:d7:c6:15:d2:a2:
         f0:a9:4a:26:0f:eb:f9:9b:d5:ff:69:66:17:c4:33:c7:6a:05:
         62:7f:c6:1b:39:a1:39:3c:ab:b0:32:20:d9:22:b4:33:7b:16:
         f0:82:26:74:f1:3e:ae:ff:ad:9a:18:9c:e7:04:9e:0b:40:ea:
         1b:16:02:6c:73:4e:fc:8b:21:f6:7c:13:0c:24:14:2b:18:d7:
         78:a0:ef:e2:24:d3:94:39:b8:16:73:ff:65:1c:b7:0a:2e:d7:
         bf:6d:cf:f5:9f:27:15:ae:66:0e:35:a9:01:4a:ad:75:05:23:
         f8:21:a4:79:46:c6:79:f8:d3:f1:0f:2e:dc:94:9f:02:23:b1:
         fa:d1:96:13:86:93:b4:1d:f6:92:c1:20:ec:eb:0f:f9:c7:b4:
         b5:63:8f:1a:86:8d:14:2e:45:20:ae:91:e7:4c:b3:59:5e:90:
         2b:92:1e:bc:d3:6b:c1:04:78:25:16:08:e7:35:d5:50:f5:05:
         dd:a1:ba:b1:55:6d:88:e7:d1:e6:4e:52:95:34:71:f5:0d:f3:
         17:88:92:08:a4:12:cf:fa:d4:09:98:a5:b2:dd:c2:34:2a:dc:
         d0:f8:c6:8b:bc:50:8b:ae:1d:14:2e:d7:8b:66:87:8f:0d:d3:
         53:3d:5d:11:f8:03:a7:ef:bc:9b:73:39:14:46:c1:56:b3:b8:
         50:cd:23:75:c2:37:22:fd:9d:81:cb:f4:f6:f0:75:1b:e8:4c:
         c2:7d:8b:c9:14:7c:fb:d3:4a:73:61:63:22:de:9f:c5:8b:3f:
         99:1d:86:c4:dd:a4:af:41:9a:74:6c:eb:d5:a9:4e:6d:d4:14:
         06:ce:7a:5c:d6:41:54:12:8b:e1:dc:02:a0:f2:7c:76:64:4b:
         d8:51:26:36:93:9c:21:e0:53:50:8c:82:79:b9:2b:42:68:b8:
         30:69:47:0b:00:d5:01:ba:8a:83:50:99:77:a0:f5:e7:c4:1e:
         49:1d:76:73:7a:32:26:9b:ff:92:ef:5a:65:b8:21:16:6b:e5:
         6a:01:df:5b:a0:01:06:e2:6f:4a:a3:8a:09:46:f9:7d:e6:35:
         fe:3d:3c:cf:fc:46:cb:15:6a:90:56:05:1d:d5:4a:60:82:03:
         f3:19:a7:05:5c:6a:4b:f3
-----BEGIN CERTIFICATE-----
MIIGFTCCA/2gAwIBAgIBBTANBgkqhkiG9w0BAQsFADBeMQswCQYDVQQGEwJCQTEL
MAkGA1UECBMCUlMxITAfBgNVBAoTGEVsZWt0cm90ZWhuaWNraSBmYWt1bHRldDER
MA8GA1UECxQIQ0FfVmFuamExDDAKBgNVBAMTA0NBMTAeFw0yMjA0MDcxNjUwNDha
Fw0yMzA0MDcxNjUwNDhaMGoxCzAJBgNVBAYTAkJBMQswCQYDVQQIEwJSUzEhMB8G
A1UEChMYRWxla3Ryb3RlaG5pY2tpIGZha3VsdGV0MREwDwYDVQQLFAhDQV9WYW5q
YTEYMBYGA1UEAxQPZHVza29AZ21haWwuY29tMIICIjANBgkqhkiG9w0BAQEFAAOC
Ag8AMIICCgKCAgEA5z7FDJpskNtUjjqb7wBbReKmaze4Dim0vCVjSf48i6Ub/2oE
bK3F4Gd1YizEw4S6a8ZnAyouxNoe314CtRXLzbTpaT5sGgfh9Zb9qKeZeJVVHesB
j4JeqfLhgBhGihy+Hz4uT0bx0papoB0c3YhjQaqiez8X8nzZehb7DLN1XMxzMW5k
fH++5zkLGcsfAYfnAwvL6n3AxSKDYi6ZcIGNdhUcIHePHMPxO93kSar/pfAN6Vwu
tmtTti9R8feOHaDh6PEMK91aCH4OnVXU4wqiZE0MnbG370YPZBuXyoQGZhFu9aDS
ulO6Swu8H/TyWDR602ox060C5SrxbhJOCL9uuyriN7TT32VWAzs1Q610LROxLwjG
FtXFvetQoYiORPz9PZSEUiwGjUOCtLot8BRDqtyinkfl+jeCTfSJFPS/PNXOsOPa
DeqlklMs1tvsMQ4JDNMsZAtDcl4NCHjVHVQ6ilwpJlIxEK9ee1p3f+nBlACzIhYj
o2KdmaijMPlfx4dZBT3EoAMoze+ThZewC2YwMijjw04DJ5nRWUjc9lWKPg1kmXWS
Ygu+KCWm0G1Sc5f5y319e1BM7HtiO8MybE7ix+oWbnmj6mbyQN11rJTAegc7DTqo
22d97WOlwKFD3HHzGWqq7E39TMBTFLUPKsNTYriV5xnkQby1PM3rAiEoPpMCAwEA
AaOB0TCBzjAJBgNVHRMEAjAAMAsGA1UdDwQEAwIE8DATBgNVHSUEDDAKBggrBgEF
BQcDAjAsBglghkgBhvhCAQ0EHxYdT3BlblNTTCBHZW5lcmF0ZWQgQ2VydGlmaWNh
dGUwHQYDVR0OBBYEFLFhOpAnfNjfKYXCCDx/cWhY1R1eMB8GA1UdIwQYMBaAFJw6
WFS7BE/CjtlS7cxfR6R3/xshMDEGA1UdHwQqMCgwJqAkoCKGIGh0dHA6Ly8xOTIu
MTY4LjIxLjg5L3Jvb3RjcmwucGVtMA0GCSqGSIb3DQEBCwUAA4ICAQB1LqHX+v+F
92+2ZkbmsdqN4iUkJfVdp0j4A+Muuj4bYBSQOrwBlPvQ0qAe+VOR7sxF9dZaYAq6
8ML+WXmMidMucsZHCFyeYjw8R5aSWXitUj4GQdYl18YV0qLwqUomD+v5m9X/aWYX
xDPHagVif8YbOaE5PKuwMiDZIrQzexbwgiZ08T6u/62aGJznBJ4LQOobFgJsc078
iyH2fBMMJBQrGNd4oO/iJNOUObgWc/9lHLcKLte/bc/1nycVrmYONakBSq11BSP4
IaR5RsZ5+NPxDy7clJ8CI7H60ZYThpO0HfaSwSDs6w/5x7S1Y48aho0ULkUgrpHn
TLNZXpArkh6802vBBHglFgjnNdVQ9QXdobqxVW2I59HmTlKVNHH1DfMXiJIIpBLP
+tQJmKWy3cI0KtzQ+MaLvFCLrh0ULteLZoePDdNTPV0R+AOn77ybczkURsFWs7hQ
zSN1wjci/Z2By/T28HUb6EzCfYvJFHz700pzYWMi3p/Fiz+ZHYbE3aSvQZp0bOvV
qU5t1BQGznpc1kFUEovh3AKg8nx2ZEvYUSY2k5wh4FNQjIJ5uStCaLgwaUcLANUB
uoqDUJl3oPXnxB5JHXZzejImm/+S71pluCEWa+VqAd9boAEG4m9Ko4oJRvl95jX+
PTzP/EbLFWqQVgUd1UpgggPzGacFXGpL8w==
-----END CERTIFICATE-----
