Certificate:
    Data:
        Version: 3 (0x2)
        Serial Number: 1 (0x1)
        Signature Algorithm: sha256WithRSAEncryption
        Issuer: C=BA, ST=RS, O=Elektrotehnicki fakultet, OU=CA_Vanja, CN=CA2
        Validity
            Not Before: Apr  6 09:11:52 2022 GMT
            Not After : Apr  6 09:11:52 2023 GMT
        Subject: C=BA, ST=RS, O=Elektrotehnicki fakultet, OU=CA_Vanja, CN=user@gmail.com
        Subject Public Key Info:
            Public Key Algorithm: rsaEncryption
                RSA Public-Key: (4096 bit)
                Modulus:
                    00:cb:23:d4:fd:10:f4:84:53:10:0d:31:da:78:3d:
                    b8:fd:b8:b0:a4:5a:df:a1:4b:11:30:59:69:03:c0:
                    81:e7:07:bf:46:db:90:78:60:f8:ff:aa:79:2f:28:
                    9c:00:3d:11:55:88:5f:16:dc:62:a8:54:d9:10:00:
                    85:1c:d4:58:4c:fe:7b:ee:be:f3:49:4e:47:30:3d:
                    e1:e9:65:f1:e1:c4:2d:1d:16:74:c0:13:58:5e:ab:
                    3e:57:5d:c5:a8:d2:73:3c:47:4a:7f:85:e3:59:f6:
                    f0:3f:c5:97:44:c3:ad:42:3f:dd:6f:55:6f:2f:8d:
                    46:32:7c:3b:20:6c:ee:1a:10:ca:7a:92:10:4b:bf:
                    ff:dc:23:d3:ed:93:fb:56:70:5f:29:7a:fe:ec:dd:
                    78:62:59:08:20:4b:a4:c0:a1:b1:3a:25:f4:74:eb:
                    ef:ef:c1:1d:c9:d9:2d:d0:a8:66:85:4c:a7:cc:57:
                    a7:10:31:6f:76:e4:12:64:8b:25:0c:c9:3f:f5:64:
                    2e:38:46:99:ff:88:9a:35:4a:57:49:db:16:56:6c:
                    12:f9:bf:fd:95:29:c9:56:88:fc:c8:24:a4:9b:b7:
                    98:28:b1:e0:8b:2b:b0:6b:83:e5:4a:14:fd:ef:85:
                    30:a4:6f:e7:8c:77:0f:65:d7:8f:9c:4c:b8:9c:7c:
                    ec:d0:74:54:a7:12:82:cd:21:a0:3f:99:f5:7f:15:
                    bb:74:8a:cd:bd:57:4e:54:2f:92:e0:60:c3:f3:a6:
                    fd:61:b9:82:fa:3b:6a:38:f6:a0:fc:ec:66:7a:5a:
                    29:21:bc:e0:23:0e:6e:48:ac:6e:ce:df:2a:2a:79:
                    d0:6a:4f:0e:ad:48:b2:56:52:60:83:84:c8:15:e0:
                    58:7e:ab:df:8c:49:40:c2:77:82:04:2c:2a:b1:b2:
                    ed:2e:d0:09:52:34:75:54:a5:8a:65:4d:42:65:ef:
                    6a:7f:95:94:bb:24:a7:ed:cf:c5:d6:56:51:a8:ee:
                    d4:4c:be:3f:89:02:fa:64:73:44:e6:87:8a:07:d0:
                    eb:38:d9:05:68:ec:4c:1d:c9:f1:91:e1:74:c2:5b:
                    a3:32:f6:71:25:74:4a:21:57:7e:bf:8e:66:44:9b:
                    25:e6:a0:31:75:85:bf:f1:d4:e7:70:ec:4d:3f:d7:
                    35:f6:6c:b8:e4:d3:19:80:e5:e9:3a:f3:1d:a0:e8:
                    b3:fe:4a:ec:86:e7:ac:81:23:d5:3c:c7:2f:9e:30:
                    95:8b:6d:9e:64:5c:5a:72:21:2f:1f:04:65:a1:4e:
                    3b:a1:58:6a:73:b6:27:6f:e1:4c:99:fb:19:06:cd:
                    d9:da:61:02:65:44:78:f2:94:ce:9f:fc:62:32:54:
                    6a:e5:4f
                Exponent: 65537 (0x10001)
        X509v3 extensions:
            X509v3 Basic Constraints: 
                CA:FALSE
            X509v3 Key Usage: 
                Digital Signature, Non Repudiation, Key Encipherment, Data Encipherment
            X509v3 Extended Key Usage: 
                TLS Web Client Authentication
            Netscape Comment: 
                OpenSSL Generated Certificate
            X509v3 Subject Key Identifier: 
                E5:01:3E:B7:3C:52:C2:88:AB:07:B4:73:2B:4D:CF:5E:FE:16:87:E1
            X509v3 Authority Key Identifier: 
                keyid:8C:11:B1:CD:16:03:CD:70:4F:03:79:7C:DC:AF:B5:68:6A:A7:83:65

            X509v3 CRL Distribution Points: 

                Full Name:
                  URI:http://192.168.21.89/rootcrl.pem

    Signature Algorithm: sha256WithRSAEncryption
         64:47:1f:3d:59:6d:52:63:20:b6:ae:9b:b8:5e:18:9e:e1:46:
         07:a3:ac:29:cf:37:e1:ca:61:ff:4d:2d:ba:e1:5d:9d:33:d6:
         eb:7a:0e:ae:c1:d5:a5:52:e4:cb:e0:f4:d1:09:64:a2:ad:71:
         fe:cf:60:e9:44:d5:ca:8e:d5:a8:48:4a:4d:13:f3:bb:36:48:
         77:ec:9c:3a:43:85:d9:fc:27:22:11:66:ec:45:31:71:f7:b0:
         5c:99:b3:de:e8:8c:e5:1e:e1:f9:b9:72:14:63:6d:e9:4a:bb:
         10:49:23:38:df:a4:1f:b7:41:5a:24:66:a2:c7:e6:52:50:59:
         a8:64:33:b6:de:be:1e:20:17:d7:72:d9:03:0f:b7:99:3a:e4:
         0f:db:ba:04:96:51:ac:4a:96:fd:6c:eb:15:63:ac:49:ae:4c:
         96:28:e9:fe:43:3d:19:72:c1:8e:7f:e1:05:12:34:9c:0e:c0:
         43:7f:8e:c3:f5:16:25:45:99:d4:55:81:1a:cb:9c:8e:9b:ce:
         30:b0:97:93:7f:06:5d:40:eb:e2:22:ef:df:1e:80:5a:bd:e1:
         c3:72:dd:22:14:6d:ff:2a:69:8d:5d:4c:fc:e0:0d:1a:98:1d:
         4e:cf:03:c8:40:14:a4:d0:f3:7f:71:a6:90:e1:48:de:d5:99:
         09:34:61:c6:3a:3d:c0:2c:f9:aa:e8:35:c8:1a:b9:c5:72:0d:
         b0:df:a6:a5:a6:e2:11:63:12:07:86:dd:69:c7:23:38:a6:bc:
         31:8a:99:3f:dd:d9:60:84:3e:aa:52:34:61:b9:a1:17:79:0f:
         14:c7:c7:85:0e:2d:79:68:84:3d:23:1a:c2:11:75:08:b5:e2:
         e0:92:53:5c:1f:43:ab:03:8f:0b:af:8c:5f:ec:6b:48:76:7f:
         38:2b:50:49:58:e9:65:19:1e:6b:bc:3b:d8:15:db:26:e1:fa:
         87:5e:a0:02:9a:21:e1:80:cd:54:ec:73:64:b6:60:26:ed:59:
         65:90:17:87:93:bd:a5:8c:f5:12:8a:c2:8d:54:a6:72:5e:26:
         e1:d6:8c:ec:3e:63:8d:a7:fb:32:bc:b6:66:09:73:e2:90:b5:
         29:82:7d:43:fb:55:d2:9d:39:d3:ac:06:ea:93:ea:61:50:d3:
         90:8b:91:47:f9:91:97:c3:a3:81:af:b8:be:95:80:87:68:d0:
         ed:57:06:ee:69:bc:55:60:53:b7:2f:e8:04:72:7f:6c:a7:b8:
         7a:67:67:e1:a3:52:e0:6d:1d:cb:7d:94:98:5b:5e:15:74:94:
         60:a4:61:99:89:a6:ae:3a:8e:06:11:3f:e4:e3:77:4f:91:e7:
         8d:02:25:bf:6f:c8:e3:f8
-----BEGIN CERTIFICATE-----
MIIGFDCCA/ygAwIBAgIBATANBgkqhkiG9w0BAQsFADBeMQswCQYDVQQGEwJCQTEL
MAkGA1UECBMCUlMxITAfBgNVBAoTGEVsZWt0cm90ZWhuaWNraSBmYWt1bHRldDER
MA8GA1UECxQIQ0FfVmFuamExDDAKBgNVBAMTA0NBMjAeFw0yMjA0MDYwOTExNTJa
Fw0yMzA0MDYwOTExNTJaMGkxCzAJBgNVBAYTAkJBMQswCQYDVQQIEwJSUzEhMB8G
A1UEChMYRWxla3Ryb3RlaG5pY2tpIGZha3VsdGV0MREwDwYDVQQLFAhDQV9WYW5q
YTEXMBUGA1UEAxQOdXNlckBnbWFpbC5jb20wggIiMA0GCSqGSIb3DQEBAQUAA4IC
DwAwggIKAoICAQDLI9T9EPSEUxANMdp4Pbj9uLCkWt+hSxEwWWkDwIHnB79G25B4
YPj/qnkvKJwAPRFViF8W3GKoVNkQAIUc1FhM/nvuvvNJTkcwPeHpZfHhxC0dFnTA
E1heqz5XXcWo0nM8R0p/heNZ9vA/xZdEw61CP91vVW8vjUYyfDsgbO4aEMp6khBL
v//cI9Ptk/tWcF8pev7s3XhiWQggS6TAobE6JfR06+/vwR3J2S3QqGaFTKfMV6cQ
MW925BJkiyUMyT/1ZC44Rpn/iJo1SldJ2xZWbBL5v/2VKclWiPzIJKSbt5goseCL
K7Brg+VKFP3vhTCkb+eMdw9l14+cTLicfOzQdFSnEoLNIaA/mfV/Fbt0is29V05U
L5LgYMPzpv1huYL6O2o49qD87GZ6WikhvOAjDm5IrG7O3yoqedBqTw6tSLJWUmCD
hMgV4Fh+q9+MSUDCd4IELCqxsu0u0AlSNHVUpYplTUJl72p/lZS7JKftz8XWVlGo
7tRMvj+JAvpkc0Tmh4oH0Os42QVo7EwdyfGR4XTCW6My9nEldEohV36/jmZEmyXm
oDF1hb/x1Odw7E0/1zX2bLjk0xmA5ek68x2g6LP+SuyG56yBI9U8xy+eMJWLbZ5k
XFpyIS8fBGWhTjuhWGpztidv4UyZ+xkGzdnaYQJlRHjylM6f/GIyVGrlTwIDAQAB
o4HRMIHOMAkGA1UdEwQCMAAwCwYDVR0PBAQDAgTwMBMGA1UdJQQMMAoGCCsGAQUF
BwMCMCwGCWCGSAGG+EIBDQQfFh1PcGVuU1NMIEdlbmVyYXRlZCBDZXJ0aWZpY2F0
ZTAdBgNVHQ4EFgQU5QE+tzxSwoirB7RzK03PXv4Wh+EwHwYDVR0jBBgwFoAUjBGx
zRYDzXBPA3l83K+1aGqng2UwMQYDVR0fBCowKDAmoCSgIoYgaHR0cDovLzE5Mi4x
NjguMjEuODkvcm9vdGNybC5wZW0wDQYJKoZIhvcNAQELBQADggIBAGRHHz1ZbVJj
ILaum7heGJ7hRgejrCnPN+HKYf9NLbrhXZ0z1ut6Dq7B1aVS5Mvg9NEJZKKtcf7P
YOlE1cqO1ahISk0T87s2SHfsnDpDhdn8JyIRZuxFMXH3sFyZs97ojOUe4fm5chRj
belKuxBJIzjfpB+3QVokZqLH5lJQWahkM7bevh4gF9dy2QMPt5k65A/bugSWUaxK
lv1s6xVjrEmuTJYo6f5DPRlywY5/4QUSNJwOwEN/jsP1FiVFmdRVgRrLnI6bzjCw
l5N/Bl1A6+Ii798egFq94cNy3SIUbf8qaY1dTPzgDRqYHU7PA8hAFKTQ839xppDh
SN7VmQk0YcY6PcAs+aroNcgaucVyDbDfpqWm4hFjEgeG3WnHIzimvDGKmT/d2WCE
PqpSNGG5oRd5DxTHx4UOLXlohD0jGsIRdQi14uCSU1wfQ6sDjwuvjF/sa0h2fzgr
UElY6WUZHmu8O9gV2ybh+odeoAKaIeGAzVTsc2S2YCbtWWWQF4eTvaWM9RKKwo1U
pnJeJuHWjOw+Y42n+zK8tmYJc+KQtSmCfUP7VdKdOdOsBuqT6mFQ05CLkUf5kZfD
o4GvuL6VgIdo0O1XBu5pvFVgU7cv6ARyf2ynuHpnZ+GjUuBtHct9lJhbXhV0lGCk
YZmJpq46jgYRP+Tjd0+R540CJb9vyOP4
-----END CERTIFICATE-----
