Certificate:
    Data:
        Version: 3 (0x2)
        Serial Number: 3 (0x3)
        Signature Algorithm: sha256WithRSAEncryption
        Issuer: C=BA, ST=RS, O=Elektrotehnicki fakultet, OU=CA_Vanja, CN=CA2
        Validity
            Not Before: Apr  7 16:50:09 2022 GMT
            Not After : Apr  7 16:50:09 2023 GMT
        Subject: C=BA, ST=RS, O=Elektrotehnicki fakultet, OU=CA_Vanja, CN=tanja@gmail.com
        Subject Public Key Info:
            Public Key Algorithm: rsaEncryption
                RSA Public-Key: (4096 bit)
                Modulus:
                    00:bc:61:ea:11:e4:f7:a9:df:52:1c:a4:a5:3b:62:
                    f8:25:55:d2:7b:e5:ce:f7:c1:29:d9:b1:e0:58:d8:
                    57:db:2e:2e:17:dc:80:92:9c:13:75:71:c2:5f:1c:
                    89:0e:c8:2f:e5:76:59:cc:41:3e:92:aa:3d:98:41:
                    d5:2e:57:75:7a:d5:9b:b2:db:61:e7:45:62:17:72:
                    3a:1f:3e:cc:52:b4:53:4b:e7:8d:7f:d2:d6:ef:ed:
                    a1:cc:17:8e:4f:80:13:fd:84:ac:d4:a8:39:56:23:
                    a8:f6:7b:6f:2f:80:b4:f1:4f:23:98:87:22:6a:e2:
                    88:c2:ed:9f:be:9a:fa:ec:07:31:c8:e9:71:73:f3:
                    9e:31:02:fb:3e:35:e8:68:90:26:39:60:e7:5e:e1:
                    94:5f:0a:08:da:be:2b:20:04:79:e4:9c:08:c6:f8:
                    f6:d5:b4:97:63:45:45:41:3a:08:6b:b3:01:c8:6e:
                    62:d2:05:f8:f3:60:a2:e8:ca:92:13:a2:db:34:7c:
                    1f:64:14:ad:ad:8a:d5:e8:b7:13:9f:0a:78:91:d7:
                    5f:07:fb:e1:dc:8f:9b:e7:c4:07:7d:b5:84:87:da:
                    e0:7e:cd:34:9d:d9:a3:9f:43:78:76:93:1b:d7:1f:
                    84:52:b5:23:2d:c7:cb:65:e1:9d:a9:43:de:a1:0e:
                    f1:8c:83:57:a2:ed:30:f2:02:fc:74:93:c2:1f:b6:
                    48:b8:a0:aa:1c:18:35:85:b4:90:e2:b3:b2:d9:15:
                    93:5b:90:a4:6a:d4:95:8d:09:06:6d:38:64:98:9d:
                    9e:ad:bf:9d:50:c5:b9:ff:10:a2:e8:ca:61:df:66:
                    4b:d3:ff:52:92:b7:c4:1b:1e:ec:0b:60:2d:83:9c:
                    c9:ba:cf:f7:7c:b7:51:68:18:52:fb:7c:e6:72:58:
                    84:2b:e7:a0:6d:a0:29:45:1f:a6:84:df:b6:4a:50:
                    8e:10:10:4e:e7:cb:9a:c0:6a:51:ac:25:c0:08:0b:
                    54:08:5d:ff:53:4d:58:81:89:77:b4:5e:08:aa:48:
                    9e:2c:8e:c7:b7:fa:70:3b:7f:ae:1e:01:99:27:a5:
                    50:d4:a4:3f:d6:60:cb:1e:69:1a:3b:fe:df:09:85:
                    61:db:9c:6e:fe:44:7a:ed:23:f7:da:66:a2:92:c3:
                    f0:3a:e1:07:75:06:91:68:26:d1:74:f6:d3:5c:56:
                    c0:de:17:a3:65:4b:e3:b8:6d:41:d4:30:7a:12:ec:
                    89:68:d1:cf:62:e0:eb:0f:2c:6e:0e:94:ce:4a:c4:
                    4d:7d:96:2b:57:87:f5:c1:c7:eb:5b:83:c8:2a:f8:
                    e1:4b:90:e2:8b:f6:46:8a:cf:b4:95:be:d4:28:6b:
                    b7:20:49
                Exponent: 65537 (0x10001)
        X509v3 extensions:
            X509v3 Basic Constraints: 
                CA:FALSE
            X509v3 Key Usage: 
                Digital Signature, Non Repudiation, Key Encipherment, Data Encipherment
            X509v3 Extended Key Usage: 
                TLS Web Client Authentication
            Netscape Comment: 
                OpenSSL Generated Certificate
            X509v3 Subject Key Identifier: 
                26:71:03:73:D8:DC:0E:34:14:B5:BD:72:1C:87:69:D6:C0:80:18:C8
            X509v3 Authority Key Identifier: 
                keyid:8C:11:B1:CD:16:03:CD:70:4F:03:79:7C:DC:AF:B5:68:6A:A7:83:65

            X509v3 CRL Distribution Points: 

                Full Name:
                  URI:http://192.168.21.89/rootcrl.pem

    Signature Algorithm: sha256WithRSAEncryption
         73:6b:cd:36:fc:2d:ac:ff:ca:5a:60:ad:d5:8f:c8:5a:35:80:
         99:c1:3f:7b:0e:69:12:38:50:57:eb:9b:23:17:a2:6a:e0:e3:
         88:58:70:77:1f:03:7b:05:44:f6:f3:71:63:39:30:a9:66:62:
         87:64:d4:6e:56:01:88:77:53:d5:46:ed:73:89:17:2d:b3:58:
         ca:01:8d:12:cd:55:cf:a2:cc:eb:d5:9d:d0:e8:6e:fa:bb:29:
         8f:a8:08:fa:d9:ca:04:77:23:8f:ff:44:32:8d:48:4d:69:5e:
         a1:54:80:0d:67:2c:b5:9e:30:e6:f2:73:e6:b6:27:cc:2f:06:
         fd:61:1f:b3:75:2b:ee:b2:62:68:40:74:bd:39:47:90:8f:7c:
         ce:a3:43:9b:10:5b:12:3b:f6:87:ae:21:1e:6e:8f:ee:29:38:
         4a:15:7b:92:87:93:60:e4:55:91:19:2e:5b:d9:b5:11:ad:f8:
         2b:65:c7:a4:ed:a1:6c:ec:2e:82:8a:10:48:2f:90:c0:24:b5:
         ec:08:fc:ea:26:e9:81:67:07:68:27:b9:f6:d9:13:e7:16:c8:
         d6:d2:39:8e:af:24:14:9d:28:1f:34:81:ba:03:0f:07:6e:2b:
         37:01:2b:ef:f5:3f:95:0b:a2:5b:bf:19:aa:f6:ac:58:47:d2:
         98:4e:8b:61:1f:5a:eb:83:d2:3f:fe:58:3e:76:83:f9:74:85:
         01:64:51:5f:1f:f9:7b:65:99:5a:c8:8e:d7:64:c5:ee:06:41:
         e7:90:4b:fd:64:b9:13:dc:f1:d3:9e:0b:16:14:0b:52:fb:00:
         d2:2f:3d:ba:27:f0:97:5f:42:1c:28:54:08:54:dc:50:05:e5:
         b2:42:9e:c3:e7:95:84:19:5a:ed:29:8d:02:82:90:13:c0:55:
         2e:b5:9b:23:f4:f0:43:09:e6:c4:6a:46:59:05:d7:74:b1:ad:
         4e:70:af:7a:4b:f2:22:c7:cf:a1:b5:b5:ab:cf:58:ab:7e:0d:
         2a:97:17:b2:4c:96:6e:32:07:44:c2:91:df:23:a0:0f:c7:09:
         c5:64:88:58:1e:8a:93:ab:11:33:38:0e:9f:49:26:2f:3a:d3:
         70:9f:8b:48:28:97:59:4b:0a:a3:9a:9f:70:00:90:d3:87:aa:
         9d:ce:89:61:94:77:f1:88:6f:88:54:30:46:0c:04:61:0b:8a:
         3b:fe:24:15:25:ed:35:d3:38:ab:ef:1e:7c:3b:c5:dc:4b:ec:
         a3:e2:19:ac:54:36:c4:76:00:13:13:55:57:64:c7:b7:c3:6f:
         93:89:38:38:9d:dd:32:c7:44:c2:97:4a:91:c8:51:5e:1a:85:
         da:a6:1d:45:1a:e9:2e:ec
-----BEGIN CERTIFICATE-----
MIIGFTCCA/2gAwIBAgIBAzANBgkqhkiG9w0BAQsFADBeMQswCQYDVQQGEwJCQTEL
MAkGA1UECBMCUlMxITAfBgNVBAoTGEVsZWt0cm90ZWhuaWNraSBmYWt1bHRldDER
MA8GA1UECxQIQ0FfVmFuamExDDAKBgNVBAMTA0NBMjAeFw0yMjA0MDcxNjUwMDla
Fw0yMzA0MDcxNjUwMDlaMGoxCzAJBgNVBAYTAkJBMQswCQYDVQQIEwJSUzEhMB8G
A1UEChMYRWxla3Ryb3RlaG5pY2tpIGZha3VsdGV0MREwDwYDVQQLFAhDQV9WYW5q
YTEYMBYGA1UEAxQPdGFuamFAZ21haWwuY29tMIICIjANBgkqhkiG9w0BAQEFAAOC
Ag8AMIICCgKCAgEAvGHqEeT3qd9SHKSlO2L4JVXSe+XO98Ep2bHgWNhX2y4uF9yA
kpwTdXHCXxyJDsgv5XZZzEE+kqo9mEHVLld1etWbstth50ViF3I6Hz7MUrRTS+eN
f9LW7+2hzBeOT4AT/YSs1Kg5ViOo9ntvL4C08U8jmIciauKIwu2fvpr67AcxyOlx
c/OeMQL7PjXoaJAmOWDnXuGUXwoI2r4rIAR55JwIxvj21bSXY0VFQToIa7MByG5i
0gX482Ci6MqSE6LbNHwfZBStrYrV6LcTnwp4kddfB/vh3I+b58QHfbWEh9rgfs00
ndmjn0N4dpMb1x+EUrUjLcfLZeGdqUPeoQ7xjINXou0w8gL8dJPCH7ZIuKCqHBg1
hbSQ4rOy2RWTW5CkatSVjQkGbThkmJ2erb+dUMW5/xCi6Mph32ZL0/9SkrfEGx7s
C2Atg5zJus/3fLdRaBhS+3zmcliEK+egbaApRR+mhN+2SlCOEBBO58uawGpRrCXA
CAtUCF3/U01YgYl3tF4IqkieLI7Ht/pwO3+uHgGZJ6VQ1KQ/1mDLHmkaO/7fCYVh
25xu/kR67SP32maiksPwOuEHdQaRaCbRdPbTXFbA3hejZUvjuG1B1DB6EuyJaNHP
YuDrDyxuDpTOSsRNfZYrV4f1wcfrW4PIKvjhS5Dii/ZGis+0lb7UKGu3IEkCAwEA
AaOB0TCBzjAJBgNVHRMEAjAAMAsGA1UdDwQEAwIE8DATBgNVHSUEDDAKBggrBgEF
BQcDAjAsBglghkgBhvhCAQ0EHxYdT3BlblNTTCBHZW5lcmF0ZWQgQ2VydGlmaWNh
dGUwHQYDVR0OBBYEFCZxA3PY3A40FLW9chyHadbAgBjIMB8GA1UdIwQYMBaAFIwR
sc0WA81wTwN5fNyvtWhqp4NlMDEGA1UdHwQqMCgwJqAkoCKGIGh0dHA6Ly8xOTIu
MTY4LjIxLjg5L3Jvb3RjcmwucGVtMA0GCSqGSIb3DQEBCwUAA4ICAQBza802/C2s
/8paYK3Vj8haNYCZwT97DmkSOFBX65sjF6Jq4OOIWHB3HwN7BUT283FjOTCpZmKH
ZNRuVgGId1PVRu1ziRcts1jKAY0SzVXPoszr1Z3Q6G76uymPqAj62coEdyOP/0Qy
jUhNaV6hVIANZyy1njDm8nPmtifMLwb9YR+zdSvusmJoQHS9OUeQj3zOo0ObEFsS
O/aHriEebo/uKThKFXuSh5Ng5FWRGS5b2bURrfgrZcek7aFs7C6CihBIL5DAJLXs
CPzqJumBZwdoJ7n22RPnFsjW0jmOryQUnSgfNIG6Aw8Hbis3ASvv9T+VC6Jbvxmq
9qxYR9KYTothH1rrg9I//lg+doP5dIUBZFFfH/l7ZZlayI7XZMXuBkHnkEv9ZLkT
3PHTngsWFAtS+wDSLz26J/CXX0IcKFQIVNxQBeWyQp7D55WEGVrtKY0CgpATwFUu
tZsj9PBDCebEakZZBdd0sa1OcK96S/Iix8+htbWrz1irfg0qlxeyTJZuMgdEwpHf
I6APxwnFZIhYHoqTqxEzOA6fSSYvOtNwn4tIKJdZSwqjmp9wAJDTh6qdzolhlHfx
iG+IVDBGDARhC4o7/iQVJe010zir7x58O8XcS+yj4hmsVDbEdgATE1VXZMe3w2+T
iTg4nd0yx0TCl0qRyFFeGoXaph1FGuku7A==
-----END CERTIFICATE-----
